---
triple:          'arm64-apple-darwin'
binary-path:     knapsack_solver
relocations:
  - { offset: 0x155D0, size: 0x8, addend: 0x0, symName: __ZL7NEG_INF, symObjAddr: 0xB0B0, symBinAddr: 0x100015704, symSize: 0x0 }
  - { offset: 0x16F30, size: 0x8, addend: 0x0, symName: __ZStL8__ioinit, symObjAddr: 0xAE760, symBinAddr: 0x100024000, symSize: 0x0 }
  - { offset: 0x178BB, size: 0x8, addend: 0x0, symName: __ZSt12__to_addressINSt8__detail10_Hash_nodeIiLb0EEEEPT_S4_, symObjAddr: 0xB09C, symBinAddr: 0x10000EFD0, symSize: 0x14 }
  - { offset: 0x178F1, size: 0x8, addend: 0x0, symName: __ZNSt15__new_allocatorINSt8__detail10_Hash_nodeIiLb0EEEE8allocateEmPKv, symObjAddr: 0xB020, symBinAddr: 0x10000EF54, symSize: 0x7C }
  - { offset: 0x17979, size: 0x8, addend: 0x0, symName: __ZSt11__addressofINSt8__detail20_Prime_rehash_policyEEPT_RS2_, symObjAddr: 0xB00C, symBinAddr: 0x10000EF40, symSize: 0x14 }
  - { offset: 0x179AF, size: 0x8, addend: 0x0, symName: __ZNSt8__detail16_Hashtable_allocISaINS_10_Hash_nodeIiLb0EEEEE16_M_allocate_nodeIJRiEEEPS2_DpOT_, symObjAddr: 0xAED4, symBinAddr: 0x10000EE08, symSize: 0x138 }
  - { offset: 0x17B17, size: 0x8, addend: 0x0, symName: __ZNSt8__detail10_Hash_nodeIiLb0EEC1Ev, symObjAddr: 0xAEB4, symBinAddr: 0x10000EDE8, symSize: 0x20 }
  - { offset: 0x17B84, size: 0x8, addend: 0x0, symName: __ZNKSt8__detail15_Hashtable_baseIiiNS_9_IdentityESt8equal_toIiESt4hashIiENS_18_Mod_range_hashingENS_20_Default_ranged_hashENS_17_Hashtable_traitsILb0ELb1ELb1EEEE12_M_equals_trIiEEbRKT_mRKNS_16_Hash_node_valueIiLb0EEE, symObjAddr: 0xAE54, symBinAddr: 0x10000ED88, symSize: 0x60 }
  - { offset: 0x17BEC, size: 0x8, addend: 0x0, symName: __ZSt7forwardIRNSt8__detail14_Node_iteratorIiLb1ELb0EEEEOT_RNSt16remove_referenceIS4_E4typeE, symObjAddr: 0xAE40, symBinAddr: 0x10000ED74, symSize: 0x14 }
  - { offset: 0x17C22, size: 0x8, addend: 0x0, symName: __ZNSt10_HashtableIiiSaIiENSt8__detail9_IdentityESt8equal_toIiESt4hashIiENS1_18_Mod_range_hashingENS1_20_Default_ranged_hashENS1_20_Prime_rehash_policyENS1_17_Hashtable_traitsILb0ELb1ELb1EEEE22_M_insert_bucket_beginEmPNS1_10_Hash_nodeIiLb0EEE, symObjAddr: 0xAD34, symBinAddr: 0x10000EC68, symSize: 0x10C }
  - { offset: 0x17C6E, size: 0x8, addend: 0x0, symName: __ZNKSt8__detail15_Hash_code_baseIiiNS_9_IdentityESt4hashIiENS_18_Mod_range_hashingENS_20_Default_ranged_hashELb0EE13_M_store_codeERNS_21_Hash_node_code_cacheILb0EEEm, symObjAddr: 0xAD18, symBinAddr: 0x10000EC4C, symSize: 0x1C }
  - { offset: 0x17CAA, size: 0x8, addend: 0x0, symName: __ZNSt10_HashtableIiiSaIiENSt8__detail9_IdentityESt8equal_toIiESt4hashIiENS1_18_Mod_range_hashingENS1_20_Default_ranged_hashENS1_20_Prime_rehash_policyENS1_17_Hashtable_traitsILb0ELb1ELb1EEEE9_M_rehashEmSt17integral_constantIbLb1EE, symObjAddr: 0xABAC, symBinAddr: 0x10000EAE0, symSize: 0x16C }
  - { offset: 0x17D7B, size: 0x8, addend: 0x0, symName: __ZNSt8__detail17_RehashStateGuardINS_20_Prime_rehash_policyEED1Ev, symObjAddr: 0xAB68, symBinAddr: 0x10000EA9C, symSize: 0x44 }
  - { offset: 0x17DC9, size: 0x8, addend: 0x0, symName: __ZNSt8__detail17_RehashStateGuardINS_20_Prime_rehash_policyEEC1ERS1_, symObjAddr: 0xAB24, symBinAddr: 0x10000EA58, symSize: 0x44 }
  - { offset: 0x17E03, size: 0x8, addend: 0x0, symName: __ZNKSt8__detail10_AllocNodeISaINS_10_Hash_nodeIiLb0EEEEEclIJRiEEEPS2_DpOT_, symObjAddr: 0xAAE8, symBinAddr: 0x10000EA1C, symSize: 0x3C }
  - { offset: 0x17E47, size: 0x8, addend: 0x0, symName: __ZNKSt10_HashtableIiiSaIiENSt8__detail9_IdentityESt8equal_toIiESt4hashIiENS1_18_Mod_range_hashingENS1_20_Default_ranged_hashENS1_20_Prime_rehash_policyENS1_17_Hashtable_traitsILb0ELb1ELb1EEEE22_M_find_before_node_trIiEEPNS1_15_Hash_node_baseEmRKT_m, symObjAddr: 0xA9EC, symBinAddr: 0x10000E920, symSize: 0xFC }
  - { offset: 0x17EEA, size: 0x8, addend: 0x0, symName: __ZSt7forwardINSt8__detail14_Node_iteratorIiLb1ELb0EEEEOT_RNSt16remove_referenceIS3_E4typeE, symObjAddr: 0xA9D8, symBinAddr: 0x10000E90C, symSize: 0x14 }
  - { offset: 0x17F68, size: 0x8, addend: 0x0, symName: __ZNSt4pairINSt8__detail14_Node_iteratorIiLb1ELb0EEEbEC1IRS2_bEEOT_OT0_, symObjAddr: 0xA98C, symBinAddr: 0x10000E8C0, symSize: 0x4C }
  - { offset: 0x17FB2, size: 0x8, addend: 0x0, symName: __ZNSt10_HashtableIiiSaIiENSt8__detail9_IdentityESt8equal_toIiESt4hashIiENS1_18_Mod_range_hashingENS1_20_Default_ranged_hashENS1_20_Prime_rehash_policyENS1_17_Hashtable_traitsILb0ELb1ELb1EEEE21_M_insert_unique_nodeEmmPNS1_10_Hash_nodeIiLb0EEEm, symObjAddr: 0xA87C, symBinAddr: 0x10000E7B0, symSize: 0x110 }
  - { offset: 0x18069, size: 0x8, addend: 0x0, symName: __ZNSt10_HashtableIiiSaIiENSt8__detail9_IdentityESt8equal_toIiESt4hashIiENS1_18_Mod_range_hashingENS1_20_Default_ranged_hashENS1_20_Prime_rehash_policyENS1_17_Hashtable_traitsILb0ELb1ELb1EEEE12_Scoped_nodeD1Ev, symObjAddr: 0xA838, symBinAddr: 0x10000E76C, symSize: 0x44 }
  - { offset: 0x180C5, size: 0x8, addend: 0x0, symName: __ZNSt10_HashtableIiiSaIiENSt8__detail9_IdentityESt8equal_toIiESt4hashIiENS1_18_Mod_range_hashingENS1_20_Default_ranged_hashENS1_20_Prime_rehash_policyENS1_17_Hashtable_traitsILb0ELb1ELb1EEEE12_Scoped_nodeC1EPNS1_10_Hash_nodeIiLb0EEEPNS1_16_Hashtable_allocISaISF_EEE, symObjAddr: 0xA804, symBinAddr: 0x10000E738, symSize: 0x34 }
  - { offset: 0x180FF, size: 0x8, addend: 0x0, symName: __ZNSt8__detail12_NodeBuilderINS_9_IdentityEE8_S_buildIRiS4_NS_10_AllocNodeISaINS_10_Hash_nodeIiLb0EEEEEEEENT1_10__node_ptrEOT_OT0_RKSA_, symObjAddr: 0xA7D4, symBinAddr: 0x10000E708, symSize: 0x30 }
  - { offset: 0x18160, size: 0x8, addend: 0x0, symName: __ZNKSt10_HashtableIiiSaIiENSt8__detail9_IdentityESt8equal_toIiESt4hashIiENS1_18_Mod_range_hashingENS1_20_Default_ranged_hashENS1_20_Prime_rehash_policyENS1_17_Hashtable_traitsILb0ELb1ELb1EEEE15_M_find_node_trIiEEPNS1_10_Hash_nodeIiLb0EEEmRKT_m, symObjAddr: 0xA780, symBinAddr: 0x10000E6B4, symSize: 0x54 }
  - { offset: 0x181D7, size: 0x8, addend: 0x0, symName: __ZNKSt8__detail15_Hash_code_baseIiiNS_9_IdentityESt4hashIiENS_18_Mod_range_hashingENS_20_Default_ranged_hashELb0EE15_M_hash_code_trIiEEmRKT_, symObjAddr: 0xA748, symBinAddr: 0x10000E67C, symSize: 0x38 }
  - { offset: 0x18263, size: 0x8, addend: 0x0, symName: __ZNSt4pairINSt8__detail14_Node_iteratorIiLb1ELb0EEEbEC1IS2_bEEOT_OT0_, symObjAddr: 0xA6FC, symBinAddr: 0x10000E630, symSize: 0x4C }
  - { offset: 0x182D5, size: 0x8, addend: 0x0, symName: __ZNSt8__detail14_Node_iteratorIiLb1ELb0EEC1EPNS_10_Hash_nodeIiLb0EEE, symObjAddr: 0xA6D4, symBinAddr: 0x10000E608, symSize: 0x28 }
  - { offset: 0x18304, size: 0x8, addend: 0x0, symName: __ZNKSt8__detail15_Hashtable_baseIiiNS_9_IdentityESt8equal_toIiESt4hashIiENS_18_Mod_range_hashingENS_20_Default_ranged_hashENS_17_Hashtable_traitsILb0ELb1ELb1EEEE16_M_key_equals_trIiEEbRKT_RKNS_16_Hash_node_valueIiLb0EEE, symObjAddr: 0xA668, symBinAddr: 0x10000E59C, symSize: 0x6C }
  - { offset: 0x183A1, size: 0x8, addend: 0x0, symName: __ZNSt15__new_allocatorIPNSt8__detail15_Hash_node_baseEE8allocateEmPKv, symObjAddr: 0xA5EC, symBinAddr: 0x10000E520, symSize: 0x7C }
  - { offset: 0x1844A, size: 0x8, addend: 0x0, symName: __ZSt7forwardIRKSt4hashIiEEOT_RNSt16remove_referenceIS4_E4typeE, symObjAddr: 0xA5D8, symBinAddr: 0x10000E50C, symSize: 0x14 }
  - { offset: 0x18480, size: 0x8, addend: 0x0, symName: __ZNSt15__new_allocatorI8solutionE8allocateEmPKv, symObjAddr: 0xA548, symBinAddr: 0x10000E47C, symSize: 0x90 }
  - { offset: 0x1850C, size: 0x8, addend: 0x0, symName: __ZNSt15__new_allocatorINSt8__detail10_Hash_nodeIiLb0EEEE10deallocateEPS2_m, symObjAddr: 0xA518, symBinAddr: 0x10000E44C, symSize: 0x30 }
  - { offset: 0x18558, size: 0x8, addend: 0x0, symName: __ZSt11__addressofINSt8__detail10_Hash_nodeIiLb0EEEEPT_RS3_, symObjAddr: 0xA504, symBinAddr: 0x10000E438, symSize: 0x14 }
  - { offset: 0x1858E, size: 0x8, addend: 0x0, symName: __ZNSt10_HashtableIiiSaIiENSt8__detail9_IdentityESt8equal_toIiESt4hashIiENS1_18_Mod_range_hashingENS1_20_Default_ranged_hashENS1_20_Prime_rehash_policyENS1_17_Hashtable_traitsILb0ELb1ELb1EEEE16_M_insert_uniqueIRiSE_NS1_10_AllocNodeISaINS1_10_Hash_nodeIiLb0EEEEEEEESt4pairINS1_14_Node_iteratorIiLb1ELb0EEEbEOT_OT0_RKT1_, symObjAddr: 0xA304, symBinAddr: 0x10000E238, symSize: 0x200 }
  - { offset: 0x186A5, size: 0x8, addend: 0x0, symName: __ZNSt10_HashtableIiiSaIiENSt8__detail9_IdentityESt8equal_toIiESt4hashIiENS1_18_Mod_range_hashingENS1_20_Default_ranged_hashENS1_20_Prime_rehash_policyENS1_17_Hashtable_traitsILb0ELb1ELb1EEEE14_S_forward_keyIRiEENSt13__conditionalIXsrSt6__and_IJSt22__is_nothrow_invocableIRS6_JRKiEESt6__not_ISH_ISI_JT_EEEEE5valueEE4typeIiOSN_EEST_, symObjAddr: 0xA2E8, symBinAddr: 0x10000E21C, symSize: 0x1C }
  - { offset: 0x186E7, size: 0x8, addend: 0x0, symName: __ZNKSt8__detail9_IdentityclIRiEEOT_S4_, symObjAddr: 0xA2C8, symBinAddr: 0x10000E1FC, symSize: 0x20 }
  - { offset: 0x18772, size: 0x8, addend: 0x0, symName: __ZSt7forwardIRKSt8equal_toIiEEOT_RNSt16remove_referenceIS4_E4typeE, symObjAddr: 0xA2B4, symBinAddr: 0x10000E1E8, symSize: 0x14 }
  - { offset: 0x187D9, size: 0x8, addend: 0x0, symName: __ZNSt8__detail21_Hashtable_ebo_helperILi1ESt4hashIiELb1EEC2IRKS2_EEOT_, symObjAddr: 0xA290, symBinAddr: 0x10000E1C4, symSize: 0x24 }
  - { offset: 0x1880D, size: 0x8, addend: 0x0, symName: __ZSt12construct_atIiJiEEDTgsnwcvPvLi0E_T_pispcl7declvalIT0_EEEEPS1_DpOS2_, symObjAddr: 0xA248, symBinAddr: 0x10000E17C, symSize: 0x48 }
  - { offset: 0x18859, size: 0x8, addend: 0x0, symName: __ZSt12construct_atISt6vectorIiSaIiEEJS2_EEDTgsnwcvPvLi0E_T_pispcl7declvalIT0_EEEEPS4_DpOS5_, symObjAddr: 0xA1FC, symBinAddr: 0x10000E130, symSize: 0x4C }
  - { offset: 0x188C8, size: 0x8, addend: 0x0, symName: __ZNSt6vectorIiSaIiEEC1EOS1_, symObjAddr: 0xA1D4, symBinAddr: 0x10000E108, symSize: 0x28 }
  - { offset: 0x18916, size: 0x8, addend: 0x0, symName: __ZNSt12_Vector_baseIiSaIiEEC2EOS1_, symObjAddr: 0xA1AC, symBinAddr: 0x10000E0E0, symSize: 0x28 }
  - { offset: 0x1896C, size: 0x8, addend: 0x0, symName: __ZNSt12_Vector_baseIiSaIiEE17_Vector_impl_dataC2EOS2_, symObjAddr: 0xA13C, symBinAddr: 0x10000E070, symSize: 0x70 }
  - { offset: 0x189A3, size: 0x8, addend: 0x0, symName: __ZSt4moveIRNSt12_Vector_baseIiSaIiEE12_Vector_implEEONSt16remove_referenceIT_E4typeEOS6_, symObjAddr: 0xA128, symBinAddr: 0x10000E05C, symSize: 0x14 }
  - { offset: 0x18A00, size: 0x8, addend: 0x0, symName: __ZNSt12_Vector_baseIiSaIiEE12_Vector_implC1EOS2_, symObjAddr: 0xA0BC, symBinAddr: 0x10000DFF0, symSize: 0x6C }
  - { offset: 0x18A89, size: 0x8, addend: 0x0, symName: __ZSt7forwardISt6vectorIiSaIiEEEOT_RNSt16remove_referenceIS3_E4typeE, symObjAddr: 0xA0A8, symBinAddr: 0x10000DFDC, symSize: 0x14 }
  - { offset: 0x18ABB, size: 0x8, addend: 0x0, symName: __ZSt12construct_atISt4pairIiiEJS1_EEDTgsnwcvPvLi0E_T_pispcl7declvalIT0_EEEEPS3_DpOS4_, symObjAddr: 0xA060, symBinAddr: 0x10000DF94, symSize: 0x48 }
  - { offset: 0x18B0D, size: 0x8, addend: 0x0, symName: __ZSt7forwardISt4pairIiiEEOT_RNSt16remove_referenceIS2_E4typeE, symObjAddr: 0xA04C, symBinAddr: 0x10000DF80, symSize: 0x14 }
  - { offset: 0x18B3F, size: 0x8, addend: 0x0, symName: __ZSt10destroy_atI8solutionEvPT_, symObjAddr: 0xA02C, symBinAddr: 0x10000DF60, symSize: 0x20 }
  - { offset: 0x18B75, size: 0x8, addend: 0x0, symName: __ZNSt15__new_allocatorI8solutionE10deallocateEPS0_m, symObjAddr: 0x9FF0, symBinAddr: 0x10000DF24, symSize: 0x3C }
  - { offset: 0x18BDE, size: 0x8, addend: 0x0, symName: __ZSt8__fill_aIPiiEvT_S1_RKT0_, symObjAddr: 0x9FC0, symBinAddr: 0x10000DEF4, symSize: 0x30 }
  - { offset: 0x18C44, size: 0x8, addend: 0x0, symName: __ZNK9__gnu_cxx16__aligned_bufferIiE7_M_addrEv, symObjAddr: 0x9FAC, symBinAddr: 0x10000DEE0, symSize: 0x14 }
  - { offset: 0x18C6E, size: 0x8, addend: 0x0, symName: __ZNKSt8__detail15_Hash_code_baseIiiNS_9_IdentityESt4hashIiENS_18_Mod_range_hashingENS_20_Default_ranged_hashELb0EE15_M_bucket_indexERKNS_16_Hash_node_valueIiLb0EEEm, symObjAddr: 0x9F48, symBinAddr: 0x10000DE7C, symSize: 0x64 }
  - { offset: 0x18CFE, size: 0x8, addend: 0x0, symName: __ZNSt8__detail15_Hashtable_baseIiiNS_9_IdentityESt8equal_toIiESt4hashIiENS_18_Mod_range_hashingENS_20_Default_ranged_hashENS_17_Hashtable_traitsILb0ELb1ELb1EEEE9_S_equalsEmRKNS_21_Hash_node_code_cacheILb0EEE, symObjAddr: 0x9F30, symBinAddr: 0x10000DE64, symSize: 0x18 }
  - { offset: 0x18D2D, size: 0x8, addend: 0x0, symName: __ZNSt15__new_allocatorIPNSt8__detail15_Hash_node_baseEE10deallocateEPS2_m, symObjAddr: 0x9F00, symBinAddr: 0x10000DE34, symSize: 0x30 }
  - { offset: 0x18D79, size: 0x8, addend: 0x0, symName: __ZSt11__addressofIPNSt8__detail15_Hash_node_baseEEPT_RS3_, symObjAddr: 0x9EEC, symBinAddr: 0x10000DE20, symSize: 0x14 }
  - { offset: 0x18DDB, size: 0x8, addend: 0x0, symName: __ZSt9addressofINSt8__detail10_Hash_nodeIiLb0EEEEPT_RS3_, symObjAddr: 0x9ED0, symBinAddr: 0x10000DE04, symSize: 0x1C }
  - { offset: 0x18E15, size: 0x8, addend: 0x0, symName: __ZN9__gnu_cxx16__aligned_bufferIiE7_M_addrEv, symObjAddr: 0x9EBC, symBinAddr: 0x10000DDF0, symSize: 0x14 }
  - { offset: 0x18E3F, size: 0x8, addend: 0x0, symName: __ZNSt10_HashtableIiiSaIiENSt8__detail9_IdentityESt8equal_toIiESt4hashIiENS1_18_Mod_range_hashingENS1_20_Default_ranged_hashENS1_20_Prime_rehash_policyENS1_17_Hashtable_traitsILb0ELb1ELb1EEEE20_M_insert_unique_auxIRiNS1_10_AllocNodeISaINS1_10_Hash_nodeIiLb0EEEEEEEESt4pairINS1_14_Node_iteratorIiLb1ELb0EEEbEOT_RKT0_, symObjAddr: 0x9E60, symBinAddr: 0x10000DD94, symSize: 0x5C }
  - { offset: 0x18EA8, size: 0x8, addend: 0x0, symName: __ZNKSt8__detail19_ConvertToValueTypeINS_9_IdentityEiEclIRiEEOT_S6_, symObjAddr: 0x9E40, symBinAddr: 0x10000DD74, symSize: 0x20 }
  - { offset: 0x18EE7, size: 0x8, addend: 0x0, symName: __ZSt12__to_addressIPNSt8__detail15_Hash_node_baseEEPT_S4_, symObjAddr: 0x9E2C, symBinAddr: 0x10000DD60, symSize: 0x14 }
  - { offset: 0x18F78, size: 0x8, addend: 0x0, symName: __ZNSt8__detail21_Hashtable_ebo_helperILi0ESaINS_10_Hash_nodeIiLb0EEEELb1EEC2IS3_EEOT_, symObjAddr: 0x9DE0, symBinAddr: 0x10000DD14, symSize: 0x4C }
  - { offset: 0x1900B, size: 0x8, addend: 0x0, symName: __ZSt7forwardISaINSt8__detail10_Hash_nodeIiLb0EEEEEOT_RNSt16remove_referenceIS4_E4typeE, symObjAddr: 0x9DCC, symBinAddr: 0x10000DD00, symSize: 0x14 }
  - { offset: 0x19072, size: 0x8, addend: 0x0, symName: __ZNSt8__detail21_Hashtable_ebo_helperILi0ESt8equal_toIiELb1EEC2IRKS2_EEOT_, symObjAddr: 0x9DA8, symBinAddr: 0x10000DCDC, symSize: 0x24 }
  - { offset: 0x190D2, size: 0x8, addend: 0x0, symName: __ZNSt8__detail15_Hash_code_baseIiiNS_9_IdentityESt4hashIiENS_18_Mod_range_hashingENS_20_Default_ranged_hashELb0EEC2ERKS3_, symObjAddr: 0x9D80, symBinAddr: 0x10000DCB4, symSize: 0x28 }
  - { offset: 0x1918A, size: 0x8, addend: 0x0, symName: __ZSt4moveIRiEONSt16remove_referenceIT_E4typeEOS2_, symObjAddr: 0x9D6C, symBinAddr: 0x10000DCA0, symSize: 0x14 }
  - { offset: 0x1922D, size: 0x8, addend: 0x0, symName: __ZSt12construct_atISt6vectorIS0_IiSaIiEESaIS2_EEJEEDTgsnwcvPvLi0E_T_pispcl7declvalIT0_EEEEPS6_DpOS7_, symObjAddr: 0x9D28, symBinAddr: 0x10000DC5C, symSize: 0x44 }
  - { offset: 0x1926D, size: 0x8, addend: 0x0, symName: __ZNSt15__new_allocatorISt6vectorIS0_IiSaIiEESaIS2_EEE8allocateEmPKv, symObjAddr: 0x9C98, symBinAddr: 0x10000DBCC, symSize: 0x90 }
  - { offset: 0x192F5, size: 0x8, addend: 0x0, symName: __ZSt12construct_atIiJEEDTgsnwcvPvLi0E_T_pispcl7declvalIT0_EEEEPS1_DpOS2_, symObjAddr: 0x9C70, symBinAddr: 0x10000DBA4, symSize: 0x28 }
  - { offset: 0x193A2, size: 0x8, addend: 0x0, symName: __ZSt8_DestroyI8solutionEvPT_, symObjAddr: 0x9C50, symBinAddr: 0x10000DB84, symSize: 0x20 }
  - { offset: 0x19428, size: 0x8, addend: 0x0, symName: __ZNSt11__copy_moveILb0ELb0ESt26random_access_iterator_tagE12__assign_oneIiiEEvPT_PT0_, symObjAddr: 0x9C28, symBinAddr: 0x10000DB5C, symSize: 0x28 }
  - { offset: 0x19475, size: 0x8, addend: 0x0, symName: __ZNSt11__copy_moveILb0ELb0ESt26random_access_iterator_tagE12__assign_oneIiKiEEvPT_PT0_, symObjAddr: 0x9C00, symBinAddr: 0x10000DB34, symSize: 0x28 }
  - { offset: 0x194C2, size: 0x8, addend: 0x0, symName: __ZSt10__fill_n_aIPimiET_S1_T0_RKT1_St26random_access_iterator_tag, symObjAddr: 0x9B9C, symBinAddr: 0x10000DAD0, symSize: 0x64 }
  - { offset: 0x1954C, size: 0x8, addend: 0x0, symName: __ZNK9__gnu_cxx16__aligned_bufferIiE6_M_ptrEv, symObjAddr: 0x9B80, symBinAddr: 0x10000DAB4, symSize: 0x1C }
  - { offset: 0x19576, size: 0x8, addend: 0x0, symName: __ZNKSt10_HashtableIiiSaIiENSt8__detail9_IdentityESt8equal_toIiESt4hashIiENS1_18_Mod_range_hashingENS1_20_Default_ranged_hashENS1_20_Prime_rehash_policyENS1_17_Hashtable_traitsILb0ELb1ELb1EEEE15_M_bucket_indexERKNS1_16_Hash_node_valueIiLb0EEE, symObjAddr: 0x9B50, symBinAddr: 0x10000DA84, symSize: 0x30 }
  - { offset: 0x195B1, size: 0x8, addend: 0x0, symName: __ZNKSt8__detail15_Hashtable_baseIiiNS_9_IdentityESt8equal_toIiESt4hashIiENS_18_Mod_range_hashingENS_20_Default_ranged_hashENS_17_Hashtable_traitsILb0ELb1ELb1EEEE9_M_equalsERKimRKNS_16_Hash_node_valueIiLb0EEE, symObjAddr: 0x9AF0, symBinAddr: 0x10000DA24, symSize: 0x60 }
  - { offset: 0x1960E, size: 0x8, addend: 0x0, symName: __ZNKSt8__detail21_Hashtable_ebo_helperILi1ESt4hashIiELb1EE7_M_cgetEv, symObjAddr: 0x9ADC, symBinAddr: 0x10000DA10, symSize: 0x14 }
  - { offset: 0x19638, size: 0x8, addend: 0x0, symName: __ZNKSt8__detail21_Hashtable_ebo_helperILi0ESt8equal_toIiELb1EE7_M_cgetEv, symObjAddr: 0x9AC8, symBinAddr: 0x10000D9FC, symSize: 0x14 }
  - { offset: 0x196A4, size: 0x8, addend: 0x0, symName: __ZSt9addressofIPNSt8__detail15_Hash_node_baseEEPT_RS3_, symObjAddr: 0x9AAC, symBinAddr: 0x10000D9E0, symSize: 0x1C }
  - { offset: 0x19708, size: 0x8, addend: 0x0, symName: __ZNSt19__ptr_traits_ptr_toIPNSt8__detail10_Hash_nodeIiLb0EEES2_Lb0EE10pointer_toERS2_, symObjAddr: 0x9A90, symBinAddr: 0x10000D9C4, symSize: 0x1C }
  - { offset: 0x19735, size: 0x8, addend: 0x0, symName: __ZN9__gnu_cxx16__aligned_bufferIiE6_M_ptrEv, symObjAddr: 0x9A74, symBinAddr: 0x10000D9A8, symSize: 0x1C }
  - { offset: 0x1975F, size: 0x8, addend: 0x0, symName: __ZNSt8__detail21_Hashtable_ebo_helperILi0ESaINS_10_Hash_nodeIiLb0EEEELb1EE6_M_getEv, symObjAddr: 0x9A60, symBinAddr: 0x10000D994, symSize: 0x14 }
  - { offset: 0x19789, size: 0x8, addend: 0x0, symName: __ZNSt10_HashtableIiiSaIiENSt8__detail9_IdentityESt8equal_toIiESt4hashIiENS1_18_Mod_range_hashingENS1_20_Default_ranged_hashENS1_20_Prime_rehash_policyENS1_17_Hashtable_traitsILb0ELb1ELb1EEEE9_M_insertIRiNS1_10_AllocNodeISaINS1_10_Hash_nodeIiLb0EEEEEEEESt4pairINS1_14_Node_iteratorIiLb1ELb0EEEbEOT_RKT0_St17integral_constantIbLb1EE, symObjAddr: 0x9A1C, symBinAddr: 0x10000D950, symSize: 0x44 }
  - { offset: 0x197F0, size: 0x8, addend: 0x0, symName: __ZNSt8__detail16_Hashtable_allocISaINS_10_Hash_nodeIiLb0EEEEE19_M_allocate_bucketsEm, symObjAddr: 0x991C, symBinAddr: 0x10000D850, symSize: 0x100 }
  - { offset: 0x1997E, size: 0x8, addend: 0x0, symName: __ZNSt27_Enable_default_constructorILb1ENSt8__detail15_Hash_node_baseEEC2ESt31_Enable_default_constructor_tag, symObjAddr: 0x9904, symBinAddr: 0x10000D838, symSize: 0x18 }
  - { offset: 0x199DE, size: 0x8, addend: 0x0, symName: __ZNSt8__detail16_Hashtable_allocISaINS_10_Hash_nodeIiLb0EEEEEC2IS3_EEOT_, symObjAddr: 0x98D4, symBinAddr: 0x10000D808, symSize: 0x30 }
  - { offset: 0x19A4C, size: 0x8, addend: 0x0, symName: __ZNSt8__detail15_Hashtable_baseIiiNS_9_IdentityESt8equal_toIiESt4hashIiENS_18_Mod_range_hashingENS_20_Default_ranged_hashENS_17_Hashtable_traitsILb0ELb1ELb1EEEEC2ERKS5_RKS3_, symObjAddr: 0x989C, symBinAddr: 0x10000D7D0, symSize: 0x38 }
  - { offset: 0x19AA4, size: 0x8, addend: 0x0, symName: __ZSt19__relocate_object_aIiiSaIiEEvPT_PT0_RT1_, symObjAddr: 0x9824, symBinAddr: 0x10000D758, symSize: 0x78 }
  - { offset: 0x19B73, size: 0x8, addend: 0x0, symName: __ZNK9__gnu_cxx17__normal_iteratorIPivEdeEv, symObjAddr: 0x980C, symBinAddr: 0x10000D740, symSize: 0x18 }
  - { offset: 0x19B9D, size: 0x8, addend: 0x0, symName: __ZN9__gnu_cxx17__normal_iteratorIPivEppEv, symObjAddr: 0x97E4, symBinAddr: 0x10000D718, symSize: 0x28 }
  - { offset: 0x19BC3, size: 0x8, addend: 0x0, symName: __ZSt19__relocate_object_aISt6vectorIiSaIiEES2_SaIS2_EEvPT_PT0_RT1_, symObjAddr: 0x976C, symBinAddr: 0x10000D6A0, symSize: 0x78 }
  - { offset: 0x19C8E, size: 0x8, addend: 0x0, symName: __ZSt10destroy_atISt6vectorIiSaIiEEEvPT_, symObjAddr: 0x974C, symBinAddr: 0x10000D680, symSize: 0x20 }
  - { offset: 0x19CC0, size: 0x8, addend: 0x0, symName: __ZSt12construct_atISt6vectorIiSaIiEEJEEDTgsnwcvPvLi0E_T_pispcl7declvalIT0_EEEEPS4_DpOS5_, symObjAddr: 0x9708, symBinAddr: 0x10000D63C, symSize: 0x44 }
  - { offset: 0x19CFC, size: 0x8, addend: 0x0, symName: __ZSt10destroy_atISt6vectorIS0_IiSaIiEESaIS2_EEEvPT_, symObjAddr: 0x96E8, symBinAddr: 0x10000D61C, symSize: 0x20 }
  - { offset: 0x19D2E, size: 0x8, addend: 0x0, symName: __ZSt10_ConstructISt6vectorIS0_IiSaIiEESaIS2_EEJEEvPT_DpOT0_, symObjAddr: 0x969C, symBinAddr: 0x10000D5D0, symSize: 0x4C }
  - { offset: 0x19D87, size: 0x8, addend: 0x0, symName: __ZNSt15__new_allocatorISt6vectorIS0_IiSaIiEESaIS2_EEE10deallocateEPS4_m, symObjAddr: 0x9660, symBinAddr: 0x10000D594, symSize: 0x3C }
  - { offset: 0x19DF4, size: 0x8, addend: 0x0, symName: __ZNSt15__new_allocatorImE8allocateEmPKv, symObjAddr: 0x95E4, symBinAddr: 0x10000D518, symSize: 0x7C }
  - { offset: 0x19E80, size: 0x8, addend: 0x0, symName: __ZNSt15__new_allocatorImE10deallocateEPmm, symObjAddr: 0x95B4, symBinAddr: 0x10000D4E8, symSize: 0x30 }
  - { offset: 0x19EC6, size: 0x8, addend: 0x0, symName: __ZSt10_ConstructIiJEEvPT_DpOT0_, symObjAddr: 0x9570, symBinAddr: 0x10000D4A4, symSize: 0x44 }
  - { offset: 0x19F1B, size: 0x8, addend: 0x0, symName: __ZSt19__relocate_object_aISt4pairIiiES1_SaIS1_EEvPT_PT0_RT1_, symObjAddr: 0x94F8, symBinAddr: 0x10000D42C, symSize: 0x78 }
  - { offset: 0x19FEA, size: 0x8, addend: 0x0, symName: __ZNSt15__new_allocatorISt4pairIiiEE8allocateEmPKv, symObjAddr: 0x947C, symBinAddr: 0x10000D3B0, symSize: 0x7C }
  - { offset: 0x1A072, size: 0x8, addend: 0x0, symName: __ZSt10destroy_atISt4pairIiiEEvPT_, symObjAddr: 0x9468, symBinAddr: 0x10000D39C, symSize: 0x14 }
  - { offset: 0x1A0A4, size: 0x8, addend: 0x0, symName: __ZSt12construct_atI8solutionJRKS0_EEDTgsnwcvPvLi0E_T_pispcl7declvalIT0_EEEEPS4_DpOS5_, symObjAddr: 0x93E8, symBinAddr: 0x10000D31C, symSize: 0x80 }
  - { offset: 0x1A0F6, size: 0x8, addend: 0x0, symName: __ZSt7forwardIRK8solutionEOT_RNSt16remove_referenceIS3_E4typeE, symObjAddr: 0x93D4, symBinAddr: 0x10000D308, symSize: 0x14 }
  - { offset: 0x1A128, size: 0x8, addend: 0x0, symName: __ZSt9__fill_a1IP8solutionS0_EN9__gnu_cxx11__enable_ifIXntsrSt11__is_scalarIT0_E7__valueEvE6__typeET_S9_RKS5_, symObjAddr: 0x9384, symBinAddr: 0x10000D2B8, symSize: 0x50 }
  - { offset: 0x1A18A, size: 0x8, addend: 0x0, symName: __ZNK9__gnu_cxx17__normal_iteratorIP8solutionSt6vectorIS1_SaIS1_EEE4baseEv, symObjAddr: 0x9370, symBinAddr: 0x10000D2A4, symSize: 0x14 }
  - { offset: 0x1A1B0, size: 0x8, addend: 0x0, symName: __ZNSt12_Destroy_auxILb0EE9__destroyIP8solutionEEvT_S4_, symObjAddr: 0x9324, symBinAddr: 0x10000D258, symSize: 0x4C }
  - { offset: 0x1A228, size: 0x8, addend: 0x0, symName: __ZNSt12_Vector_baseI8solutionSaIS0_EE11_M_allocateEm, symObjAddr: 0x924C, symBinAddr: 0x10000D180, symSize: 0xD8 }
  - { offset: 0x1A2D2, size: 0x8, addend: 0x0, symName: __ZNSt11__copy_moveILb0ELb1ESt26random_access_iterator_tagE8__copy_mIiiEEPT0_PT_S6_S4_, symObjAddr: 0x91BC, symBinAddr: 0x10000D0F0, symSize: 0x90 }
  - { offset: 0x1A341, size: 0x8, addend: 0x0, symName: __ZNSt11__copy_moveILb0ELb0ESt26random_access_iterator_tagE8__copy_mIPiS3_EET0_T_S5_S4_, symObjAddr: 0x9148, symBinAddr: 0x10000D07C, symSize: 0x74 }
  - { offset: 0x1A3D0, size: 0x8, addend: 0x0, symName: __ZNSt11__copy_moveILb0ELb1ESt26random_access_iterator_tagE8__copy_mIKiiEEPT0_PT_S7_S5_, symObjAddr: 0x90B8, symBinAddr: 0x10000CFEC, symSize: 0x90 }
  - { offset: 0x1A43F, size: 0x8, addend: 0x0, symName: __ZNSt11__copy_moveILb0ELb0ESt26random_access_iterator_tagE8__copy_mIPKiPiEET0_T_S7_S6_, symObjAddr: 0x9044, symBinAddr: 0x10000CF78, symSize: 0x74 }
  - { offset: 0x1A4CE, size: 0x8, addend: 0x0, symName: __ZSt10destroy_atIiEvPT_, symObjAddr: 0x9030, symBinAddr: 0x10000CF64, symSize: 0x14 }
  - { offset: 0x1A500, size: 0x8, addend: 0x0, symName: __ZSt6fill_nIPimiET_S1_T0_RKT1_, symObjAddr: 0x8FE8, symBinAddr: 0x10000CF1C, symSize: 0x48 }
  - { offset: 0x1A5A2, size: 0x8, addend: 0x0, symName: __ZNKSt10_HashtableIiiSaIiENSt8__detail9_IdentityESt8equal_toIiESt4hashIiENS1_18_Mod_range_hashingENS1_20_Default_ranged_hashENS1_20_Prime_rehash_policyENS1_17_Hashtable_traitsILb0ELb1ELb1EEEE19_M_find_before_nodeEmRKim, symObjAddr: 0x8EEC, symBinAddr: 0x10000CE20, symSize: 0xFC }
  - { offset: 0x1A634, size: 0x8, addend: 0x0, symName: __ZNKSt8__detail15_Hash_code_baseIiiNS_9_IdentityESt4hashIiENS_18_Mod_range_hashingENS_20_Default_ranged_hashELb0EE15_M_bucket_indexEmm, symObjAddr: 0x8EC0, symBinAddr: 0x10000CDF4, symSize: 0x2C }
  - { offset: 0x1A680, size: 0x8, addend: 0x0, symName: __ZNKSt8__detail15_Hash_code_baseIiiNS_9_IdentityESt4hashIiENS_18_Mod_range_hashingENS_20_Default_ranged_hashELb0EE7_M_hashEv, symObjAddr: 0x8EA4, symBinAddr: 0x10000CDD8, symSize: 0x1C }
  - { offset: 0x1A6D2, size: 0x8, addend: 0x0, symName: __ZNSt8__detail19_Node_iterator_baseIiLb0EEC2EPNS_10_Hash_nodeIiLb0EEE, symObjAddr: 0x8E80, symBinAddr: 0x10000CDB4, symSize: 0x24 }
  - { offset: 0x1A701, size: 0x8, addend: 0x0, symName: __ZNKSt8equal_toIiEclERKiS2_, symObjAddr: 0x8E4C, symBinAddr: 0x10000CD80, symSize: 0x34 }
  - { offset: 0x1A74D, size: 0x8, addend: 0x0, symName: __ZNKSt8__detail15_Hashtable_baseIiiNS_9_IdentityESt8equal_toIiESt4hashIiENS_18_Mod_range_hashingENS_20_Default_ranged_hashENS_17_Hashtable_traitsILb0ELb1ELb1EEEE5_M_eqEv, symObjAddr: 0x8E30, symBinAddr: 0x10000CD64, symSize: 0x1C }
  - { offset: 0x1A773, size: 0x8, addend: 0x0, symName: __ZNSt8__detail22_Hashtable_hash_traitsISt4hashIiEE22__small_size_thresholdEv, symObjAddr: 0x8E28, symBinAddr: 0x10000CD5C, symSize: 0x8 }
  - { offset: 0x1A801, size: 0x8, addend: 0x0, symName: __ZNSt19__ptr_traits_ptr_toIPPNSt8__detail15_Hash_node_baseES2_Lb0EE10pointer_toERS2_, symObjAddr: 0x8E0C, symBinAddr: 0x10000CD40, symSize: 0x1C }
  - { offset: 0x1A82E, size: 0x8, addend: 0x0, symName: __ZNSt8__detail16_Hashtable_allocISaINS_10_Hash_nodeIiLb0EEEEE22_M_deallocate_node_ptrEPS2_, symObjAddr: 0x8D80, symBinAddr: 0x10000CCB4, symSize: 0x8C }
  - { offset: 0x1A944, size: 0x8, addend: 0x0, symName: __ZNSt8__detail16_Hashtable_allocISaINS_10_Hash_nodeIiLb0EEEEE17_M_node_allocatorEv, symObjAddr: 0x8D64, symBinAddr: 0x10000CC98, symSize: 0x1C }
  - { offset: 0x1A96E, size: 0x8, addend: 0x0, symName: __ZNSt8__detail12_Insert_baseIiiSaIiENS_9_IdentityESt8equal_toIiESt4hashIiENS_18_Mod_range_hashingENS_20_Default_ranged_hashENS_20_Prime_rehash_policyENS_17_Hashtable_traitsILb0ELb1ELb1EEEE15_M_insert_rangeIN9__gnu_cxx17__normal_iteratorIPiSt6vectorIiS1_EEENS_10_AllocNodeISaINS_10_Hash_nodeIiLb0EEEEEEEEvT_SP_RKT0_St17integral_constantIbLb1EE, symObjAddr: 0x8CDC, symBinAddr: 0x10000CC10, symSize: 0x88 }
  - { offset: 0x1AA26, size: 0x8, addend: 0x0, symName: __ZNSt8__detail10_AllocNodeISaINS_10_Hash_nodeIiLb0EEEEEC1ERNS_16_Hashtable_allocIS3_EE, symObjAddr: 0x8CB8, symBinAddr: 0x10000CBEC, symSize: 0x24 }
  - { offset: 0x1AA55, size: 0x8, addend: 0x0, symName: __ZNSt8__detail12_Insert_baseIiiSaIiENS_9_IdentityESt8equal_toIiESt4hashIiENS_18_Mod_range_hashingENS_20_Default_ranged_hashENS_20_Prime_rehash_policyENS_17_Hashtable_traitsILb0ELb1ELb1EEEE20_M_conjure_hashtableEv, symObjAddr: 0x8CA4, symBinAddr: 0x10000CBD8, symSize: 0x14 }
  - { offset: 0x1AA7F, size: 0x8, addend: 0x0, symName: __ZNSt10_HashtableIiiSaIiENSt8__detail9_IdentityESt8equal_toIiESt4hashIiENS1_18_Mod_range_hashingENS1_20_Default_ranged_hashENS1_20_Prime_rehash_policyENS1_17_Hashtable_traitsILb0ELb1ELb1EEEE19_M_allocate_bucketsEm, symObjAddr: 0x8C4C, symBinAddr: 0x10000CB80, symSize: 0x58 }
  - { offset: 0x1AAFE, size: 0x8, addend: 0x0, symName: __ZNSt10_HashtableIiiSaIiENSt8__detail9_IdentityESt8equal_toIiESt4hashIiENS1_18_Mod_range_hashingENS1_20_Default_ranged_hashENS1_20_Prime_rehash_policyENS1_17_Hashtable_traitsILb0ELb1ELb1EEEEC1ERKS6_RKS4_RKS0_, symObjAddr: 0x8B90, symBinAddr: 0x10000CAC4, symSize: 0xBC }
  - { offset: 0x1ABAD, size: 0x8, addend: 0x0, symName: __ZNK9__gnu_cxx17__normal_iteratorIPivE4baseEv, symObjAddr: 0x8B7C, symBinAddr: 0x10000CAB0, symSize: 0x14 }
  - { offset: 0x1ABD3, size: 0x8, addend: 0x0, symName: __ZSt14__relocate_a_1IPiN9__gnu_cxx17__normal_iteratorIS0_vEESaIiEET0_T_S6_S5_RT1_, symObjAddr: 0x8AF8, symBinAddr: 0x10000CA2C, symSize: 0x84 }
  - { offset: 0x1AC60, size: 0x8, addend: 0x0, symName: __ZNSt15__new_allocatorIiE8allocateEmPKv, symObjAddr: 0x8A7C, symBinAddr: 0x10000C9B0, symSize: 0x7C }
  - { offset: 0x1ACE8, size: 0x8, addend: 0x0, symName: __ZSt14__relocate_a_1IPSt6vectorIiSaIiEES3_SaIS2_EET0_T_S6_S5_RT1_, symObjAddr: 0x89F8, symBinAddr: 0x10000C92C, symSize: 0x84 }
  - { offset: 0x1AD71, size: 0x8, addend: 0x0, symName: __ZSt12__niter_baseIPSt6vectorIiSaIiEEET_S4_, symObjAddr: 0x89E4, symBinAddr: 0x10000C918, symSize: 0x14 }
  - { offset: 0x1ADA4, size: 0x8, addend: 0x0, symName: __ZNSt20__uninitialized_copyILb1EE13__uninit_copyIN9__gnu_cxx17__normal_iteratorIPiSt6vectorIiSaIiEEEES4_EET0_T_SA_S9_, symObjAddr: 0x89B8, symBinAddr: 0x10000C8EC, symSize: 0x2C }
  - { offset: 0x1AE03, size: 0x8, addend: 0x0, symName: __ZN9__gnu_cxx17__normal_iteratorIPiSt6vectorIiSaIiEEEpLEl, symObjAddr: 0x8984, symBinAddr: 0x10000C8B8, symSize: 0x34 }
  - { offset: 0x1AE3A, size: 0x8, addend: 0x0, symName: __ZSt8_DestroyISt6vectorIiSaIiEEEvPT_, symObjAddr: 0x8964, symBinAddr: 0x10000C898, symSize: 0x20 }
  - { offset: 0x1AE6C, size: 0x8, addend: 0x0, symName: __ZSt10_ConstructISt6vectorIiSaIiEEJEEvPT_DpOT0_, symObjAddr: 0x8918, symBinAddr: 0x10000C84C, symSize: 0x4C }
  - { offset: 0x1AEC1, size: 0x8, addend: 0x0, symName: __ZSt11__addressofISt6vectorIiSaIiEEEPT_RS3_, symObjAddr: 0x8904, symBinAddr: 0x10000C838, symSize: 0x14 }
  - { offset: 0x1AEF7, size: 0x8, addend: 0x0, symName: __ZNSt15__new_allocatorISt6vectorIiSaIiEEE10deallocateEPS2_m, symObjAddr: 0x88C8, symBinAddr: 0x10000C7FC, symSize: 0x3C }
  - { offset: 0x1AF3D, size: 0x8, addend: 0x0, symName: __ZSt8_DestroyISt6vectorIS0_IiSaIiEESaIS2_EEEvPT_, symObjAddr: 0x88A8, symBinAddr: 0x10000C7DC, symSize: 0x20 }
  - { offset: 0x1AF6F, size: 0x8, addend: 0x0, symName: __ZSt11__addressofISt6vectorIS0_IiSaIiEESaIS2_EEEPT_RS5_, symObjAddr: 0x8894, symBinAddr: 0x10000C7C8, symSize: 0x14 }
  - { offset: 0x1AFA1, size: 0x8, addend: 0x0, symName: __ZNSt27__uninitialized_default_n_1ILb0EE18__uninit_default_nIPSt6vectorIS2_IiSaIiEESaIS4_EEmEET_S8_T0_, symObjAddr: 0x883C, symBinAddr: 0x10000C770, symSize: 0x58 }
  - { offset: 0x1B053, size: 0x8, addend: 0x0, symName: __ZSt12__to_addressImEPT_S1_, symObjAddr: 0x8828, symBinAddr: 0x10000C75C, symSize: 0x14 }
  - { offset: 0x1B0D8, size: 0x8, addend: 0x0, symName: __ZNSt27__uninitialized_default_n_1ILb1EE18__uninit_default_nIPimEET_S3_T0_, symObjAddr: 0x87C4, symBinAddr: 0x10000C6F8, symSize: 0x64 }
  - { offset: 0x1B14F, size: 0x8, addend: 0x0, symName: __ZNSt27__uninitialized_default_n_1ILb0EE18__uninit_default_nIPimEET_S3_T0_, symObjAddr: 0x876C, symBinAddr: 0x10000C6A0, symSize: 0x58 }
  - { offset: 0x1B1AD, size: 0x8, addend: 0x0, symName: __ZSt14__relocate_a_1IPSt4pairIiiES2_SaIS1_EET0_T_S5_S4_RT1_, symObjAddr: 0x86E8, symBinAddr: 0x10000C61C, symSize: 0x84 }
  - { offset: 0x1B236, size: 0x8, addend: 0x0, symName: __ZSt12__niter_baseIPSt4pairIiiEET_S3_, symObjAddr: 0x86D4, symBinAddr: 0x10000C608, symSize: 0x14 }
  - { offset: 0x1B28C, size: 0x8, addend: 0x0, symName: __ZSt8_DestroyISt4pairIiiEEvPT_, symObjAddr: 0x86B4, symBinAddr: 0x10000C5E8, symSize: 0x20 }
  - { offset: 0x1B2BE, size: 0x8, addend: 0x0, symName: __ZSt11__addressofISt4pairIiiEEPT_RS2_, symObjAddr: 0x86A0, symBinAddr: 0x10000C5D4, symSize: 0x14 }
  - { offset: 0x1B2F4, size: 0x8, addend: 0x0, symName: __ZNSt15__new_allocatorISt4pairIiiEE10deallocateEPS1_m, symObjAddr: 0x8670, symBinAddr: 0x10000C5A4, symSize: 0x30 }
  - { offset: 0x1B33A, size: 0x8, addend: 0x0, symName: __ZSt8__fill_aIP8solutionS0_EvT_S2_RKT0_, symObjAddr: 0x8640, symBinAddr: 0x10000C574, symSize: 0x30 }
  - { offset: 0x1B398, size: 0x8, addend: 0x0, symName: __ZNSt22__uninitialized_fill_nILb0EE15__uninit_fill_nIP8solutionmS2_EET_S4_T0_RKT1_, symObjAddr: 0x8614, symBinAddr: 0x10000C548, symSize: 0x2C }
  - { offset: 0x1B3FF, size: 0x8, addend: 0x0, symName: __ZSt10_ConstructI8solutionJRKS0_EEvPT_DpOT0_, symObjAddr: 0x8570, symBinAddr: 0x10000C4A4, symSize: 0xA4 }
  - { offset: 0x1B464, size: 0x8, addend: 0x0, symName: __ZSt11__addressofI8solutionEPT_RS1_, symObjAddr: 0x855C, symBinAddr: 0x10000C490, symSize: 0x14 }
  - { offset: 0x1B496, size: 0x8, addend: 0x0, symName: __ZSt9__fill_a1IP8solutionSt6vectorIS0_SaIS0_EES0_EvN9__gnu_cxx17__normal_iteratorIT_T0_EES9_RKT1_, symObjAddr: 0x850C, symBinAddr: 0x10000C440, symSize: 0x50 }
  - { offset: 0x1B4FD, size: 0x8, addend: 0x0, symName: __ZSt8_DestroyIP8solutionEvT_S2_, symObjAddr: 0x84C8, symBinAddr: 0x10000C3FC, symSize: 0x44 }
  - { offset: 0x1B55C, size: 0x8, addend: 0x0, symName: __ZNSt12_Vector_baseI8solutionSaIS0_EE13_M_deallocateEPS0_m, symObjAddr: 0x843C, symBinAddr: 0x10000C370, symSize: 0x8C }
  - { offset: 0x1B62E, size: 0x8, addend: 0x0, symName: __ZNSt12_Vector_baseI8solutionSaIS0_EE17_M_create_storageEm, symObjAddr: 0x83D0, symBinAddr: 0x10000C304, symSize: 0x6C }
  - { offset: 0x1B685, size: 0x8, addend: 0x0, symName: __ZNSt6vectorI8solutionSaIS0_EE11_S_max_sizeERKS1_, symObjAddr: 0x8394, symBinAddr: 0x10000C2C8, symSize: 0x3C }
  - { offset: 0x1B6D1, size: 0x8, addend: 0x0, symName: __ZSt12construct_atIiJRiEEDTgsnwcvPvLi0E_T_pispcl7declvalIT0_EEEEPS2_DpOS3_, symObjAddr: 0x834C, symBinAddr: 0x10000C280, symSize: 0x48 }
  - { offset: 0x1B71D, size: 0x8, addend: 0x0, symName: __ZSt14__copy_move_a2ILb0EPiS0_ET1_T0_S2_S1_, symObjAddr: 0x82F8, symBinAddr: 0x10000C22C, symSize: 0x54 }
  - { offset: 0x1B785, size: 0x8, addend: 0x0, symName: __ZSt14__copy_move_a2ILb0EPKiPiET1_T0_S4_S3_, symObjAddr: 0x82A4, symBinAddr: 0x10000C1D8, symSize: 0x54 }
  - { offset: 0x1B7ED, size: 0x8, addend: 0x0, symName: __ZSt13__copy_move_aILb0EN9__gnu_cxx17__normal_iteratorIPKiSt6vectorIiSaIiEEEEPiET1_T0_SA_S9_, symObjAddr: 0x8244, symBinAddr: 0x10000C178, symSize: 0x60 }
  - { offset: 0x1B859, size: 0x8, addend: 0x0, symName: __ZNSt15__new_allocatorIiE10deallocateEPim, symObjAddr: 0x8214, symBinAddr: 0x10000C148, symSize: 0x30 }
  - { offset: 0x1B89F, size: 0x8, addend: 0x0, symName: __ZSt8_DestroyIiEvPT_, symObjAddr: 0x81F4, symBinAddr: 0x10000C128, symSize: 0x20 }
  - { offset: 0x1B8D1, size: 0x8, addend: 0x0, symName: __ZNSt22__uninitialized_fill_nILb1EE15__uninit_fill_nIPimiEET_S3_T0_RKT1_, symObjAddr: 0x81C8, symBinAddr: 0x10000C0FC, symSize: 0x2C }
  - { offset: 0x1B93C, size: 0x8, addend: 0x0, symName: __ZNKSt8__detail9_IdentityclIRKiEEOT_S5_, symObjAddr: 0x81A8, symBinAddr: 0x10000C0DC, symSize: 0x20 }
  - { offset: 0x1B995, size: 0x8, addend: 0x0, symName: __ZNKSt10_HashtableIiiSaIiENSt8__detail9_IdentityESt8equal_toIiESt4hashIiENS1_18_Mod_range_hashingENS1_20_Default_ranged_hashENS1_20_Prime_rehash_policyENS1_17_Hashtable_traitsILb0ELb1ELb1EEEE12_M_find_nodeEmRKim, symObjAddr: 0x8154, symBinAddr: 0x10000C088, symSize: 0x54 }
  - { offset: 0x1BA03, size: 0x8, addend: 0x0, symName: __ZNKSt10_HashtableIiiSaIiENSt8__detail9_IdentityESt8equal_toIiESt4hashIiENS1_18_Mod_range_hashingENS1_20_Default_ranged_hashENS1_20_Prime_rehash_policyENS1_17_Hashtable_traitsILb0ELb1ELb1EEEE15_M_bucket_indexEm, symObjAddr: 0x8124, symBinAddr: 0x10000C058, symSize: 0x30 }
  - { offset: 0x1BA3E, size: 0x8, addend: 0x0, symName: __ZNKSt8__detail15_Hash_code_baseIiiNS_9_IdentityESt4hashIiENS_18_Mod_range_hashingENS_20_Default_ranged_hashELb0EE12_M_hash_codeERKi, symObjAddr: 0x80EC, symBinAddr: 0x10000C020, symSize: 0x38 }
  - { offset: 0x1BA79, size: 0x8, addend: 0x0, symName: __ZNKSt10_HashtableIiiSaIiENSt8__detail9_IdentityESt8equal_toIiESt4hashIiENS1_18_Mod_range_hashingENS1_20_Default_ranged_hashENS1_20_Prime_rehash_policyENS1_17_Hashtable_traitsILb0ELb1ELb1EEEE3endEv, symObjAddr: 0x80C8, symBinAddr: 0x10000BFFC, symSize: 0x24 }
  - { offset: 0x1BACB, size: 0x8, addend: 0x0, symName: __ZNSt8__detail20_Node_const_iteratorIiLb1ELb0EEC1EPNS_10_Hash_nodeIiLb0EEE, symObjAddr: 0x80A0, symBinAddr: 0x10000BFD4, symSize: 0x28 }
  - { offset: 0x1BAFA, size: 0x8, addend: 0x0, symName: __ZNKSt8__detail15_Hashtable_baseIiiNS_9_IdentityESt8equal_toIiESt4hashIiENS_18_Mod_range_hashingENS_20_Default_ranged_hashENS_17_Hashtable_traitsILb0ELb1ELb1EEEE13_M_key_equalsERKiRKNS_16_Hash_node_valueIiLb0EEE, symObjAddr: 0x8034, symBinAddr: 0x10000BF68, symSize: 0x6C }
  - { offset: 0x1BB8A, size: 0x8, addend: 0x0, symName: __ZNSt10_HashtableIiiSaIiENSt8__detail9_IdentityESt8equal_toIiESt4hashIiENS1_18_Mod_range_hashingENS1_20_Default_ranged_hashENS1_20_Prime_rehash_policyENS1_17_Hashtable_traitsILb0ELb1ELb1EEEE22__small_size_thresholdEv, symObjAddr: 0x8020, symBinAddr: 0x10000BF54, symSize: 0x14 }
  - { offset: 0x1BBA6, size: 0x8, addend: 0x0, symName: __ZNKSt10_HashtableIiiSaIiENSt8__detail9_IdentityESt8equal_toIiESt4hashIiENS1_18_Mod_range_hashingENS1_20_Default_ranged_hashENS1_20_Prime_rehash_policyENS1_17_Hashtable_traitsILb0ELb1ELb1EEEE4sizeEv, symObjAddr: 0x8008, symBinAddr: 0x10000BF3C, symSize: 0x18 }
  - { offset: 0x1BBD0, size: 0x8, addend: 0x0, symName: __ZNSt8__detail16_Hashtable_allocISaINS_10_Hash_nodeIiLb0EEEEE21_M_deallocate_bucketsEPPNS_15_Hash_node_baseEm, symObjAddr: 0x7F64, symBinAddr: 0x10000BE98, symSize: 0xA4 }
  - { offset: 0x1BD32, size: 0x8, addend: 0x0, symName: __ZNKSt10_HashtableIiiSaIiENSt8__detail9_IdentityESt8equal_toIiESt4hashIiENS1_18_Mod_range_hashingENS1_20_Default_ranged_hashENS1_20_Prime_rehash_policyENS1_17_Hashtable_traitsILb0ELb1ELb1EEEE21_M_uses_single_bucketEPPNS1_15_Hash_node_baseE, symObjAddr: 0x7F28, symBinAddr: 0x10000BE5C, symSize: 0x3C }
  - { offset: 0x1BD6D, size: 0x8, addend: 0x0, symName: __ZNSt8__detail16_Hashtable_allocISaINS_10_Hash_nodeIiLb0EEEEE18_M_deallocate_nodeEPS2_, symObjAddr: 0x7EC0, symBinAddr: 0x10000BDF4, symSize: 0x68 }
  - { offset: 0x1BDF9, size: 0x8, addend: 0x0, symName: __ZNKSt8__detail10_Hash_nodeIiLb0EE7_M_nextEv, symObjAddr: 0x7EA8, symBinAddr: 0x10000BDDC, symSize: 0x18 }
  - { offset: 0x1BE23, size: 0x8, addend: 0x0, symName: __ZNSt8__detail12_Insert_baseIiiSaIiENS_9_IdentityESt8equal_toIiESt4hashIiENS_18_Mod_range_hashingENS_20_Default_ranged_hashENS_20_Prime_rehash_policyENS_17_Hashtable_traitsILb0ELb1ELb1EEEE6insertIN9__gnu_cxx17__normal_iteratorIPiSt6vectorIiS1_EEEEEvT_SK_, symObjAddr: 0x7E4C, symBinAddr: 0x10000BD80, symSize: 0x5C }
  - { offset: 0x1BEFD, size: 0x8, addend: 0x0, symName: __ZNSt10_HashtableIiiSaIiENSt8__detail9_IdentityESt8equal_toIiESt4hashIiENS1_18_Mod_range_hashingENS1_20_Default_ranged_hashENS1_20_Prime_rehash_policyENS1_17_Hashtable_traitsILb0ELb1ELb1EEEEC1EmRKS6_RKS4_RKS0_, symObjAddr: 0x7DA4, symBinAddr: 0x10000BCD8, symSize: 0xA8 }
  - { offset: 0x1BF70, size: 0x8, addend: 0x0, symName: __ZSt14__relocate_a_1IiiENSt9enable_ifIXsrSt24__is_bitwise_relocatableIT_vE5valueEPS2_E4typeES4_S4_S4_RSaIT0_E, symObjAddr: 0x7CF8, symBinAddr: 0x10000BC2C, symSize: 0xAC }
  - { offset: 0x1C040, size: 0x8, addend: 0x0, symName: __ZN9__gnu_cxx17__normal_iteratorIPivEC1ERKS1_, symObjAddr: 0x7CD0, symBinAddr: 0x10000BC04, symSize: 0x28 }
  - { offset: 0x1C08E, size: 0x8, addend: 0x0, symName: __ZSt12__relocate_aIPSt6vectorIiSaIiEES3_SaIS2_EET0_T_S6_S5_RT1_, symObjAddr: 0x7C74, symBinAddr: 0x10000BBA8, symSize: 0x5C }
  - { offset: 0x1C10C, size: 0x8, addend: 0x0, symName: __ZSt4moveIRSaISt6vectorIiSaIiEEEEONSt16remove_referenceIT_E4typeEOS6_, symObjAddr: 0x7C60, symBinAddr: 0x10000BB94, symSize: 0x14 }
  - { offset: 0x1C142, size: 0x8, addend: 0x0, symName: __ZNSt12_Vector_baseISt6vectorIiSaIiEESaIS2_EE17_Vector_impl_data12_M_copy_dataERKS5_, symObjAddr: 0x7C18, symBinAddr: 0x10000BB4C, symSize: 0x48 }
  - { offset: 0x1C178, size: 0x8, addend: 0x0, symName: __ZSt18uninitialized_copyIN9__gnu_cxx17__normal_iteratorIPiSt6vectorIiSaIiEEEES2_ET0_T_S8_S7_, symObjAddr: 0x7BDC, symBinAddr: 0x10000BB10, symSize: 0x3C }
  - { offset: 0x1C1F1, size: 0x8, addend: 0x0, symName: __ZSt16__do_uninit_copyIN9__gnu_cxx17__normal_iteratorIPiSt6vectorIiSaIiEEEES2_ET0_T_S8_S7_, symObjAddr: 0x7B54, symBinAddr: 0x10000BA88, symSize: 0x88 }
  - { offset: 0x1C25B, size: 0x8, addend: 0x0, symName: __ZSt9__advanceIN9__gnu_cxx17__normal_iteratorIPiSt6vectorIiSaIiEEEElEvRT_T0_St26random_access_iterator_tag, symObjAddr: 0x7B28, symBinAddr: 0x10000BA5C, symSize: 0x2C }
  - { offset: 0x1C2AF, size: 0x8, addend: 0x0, symName: __ZSt13__copy_move_aILb0EN9__gnu_cxx17__normal_iteratorIPiSt6vectorIiSaIiEEEES2_ET1_T0_S8_S7_, symObjAddr: 0x7AC8, symBinAddr: 0x10000B9FC, symSize: 0x60 }
  - { offset: 0x1C317, size: 0x8, addend: 0x0, symName: __ZSt12__miter_baseIN9__gnu_cxx17__normal_iteratorIPiSt6vectorIiSaIiEEEEET_S7_, symObjAddr: 0x7AB4, symBinAddr: 0x10000B9E8, symSize: 0x14 }
  - { offset: 0x1C34A, size: 0x8, addend: 0x0, symName: __ZNSt12_Destroy_auxILb0EE9__destroyIPSt6vectorIiSaIiEEEEvT_S6_, symObjAddr: 0x7A68, symBinAddr: 0x10000B99C, symSize: 0x4C }
  - { offset: 0x1C38C, size: 0x8, addend: 0x0, symName: __ZNSt27__uninitialized_default_n_1ILb0EE18__uninit_default_nIPSt6vectorIiSaIiEEmEET_S6_T0_, symObjAddr: 0x7A10, symBinAddr: 0x10000B944, symSize: 0x58 }
  - { offset: 0x1C41A, size: 0x8, addend: 0x0, symName: __ZNSt12_Destroy_auxILb0EE9__destroyIPSt6vectorIS2_IiSaIiEESaIS4_EEEEvT_S8_, symObjAddr: 0x79C4, symBinAddr: 0x10000B8F8, symSize: 0x4C }
  - { offset: 0x1C45C, size: 0x8, addend: 0x0, symName: __ZSt25__uninitialized_default_nIPSt6vectorIS0_IiSaIiEESaIS2_EEmET_S6_T0_, symObjAddr: 0x7974, symBinAddr: 0x10000B8A8, symSize: 0x50 }
  - { offset: 0x1C4F0, size: 0x8, addend: 0x0, symName: __ZNSt12_Vector_baseISt6vectorIS0_IiSaIiEESaIS2_EESaIS4_EE11_M_allocateEm, symObjAddr: 0x789C, symBinAddr: 0x10000B7D0, symSize: 0xD8 }
  - { offset: 0x1C59A, size: 0x8, addend: 0x0, symName: __ZSt12construct_atImJEEDTgsnwcvPvLi0E_T_pispcl7declvalIT0_EEEEPS1_DpOS2_, symObjAddr: 0x7874, symBinAddr: 0x10000B7A8, symSize: 0x28 }
  - { offset: 0x1C5D6, size: 0x8, addend: 0x0, symName: __ZSt10to_addressImEPT_S1_, symObjAddr: 0x7858, symBinAddr: 0x10000B78C, symSize: 0x1C }
  - { offset: 0x1C630, size: 0x8, addend: 0x0, symName: __ZNSt13_Bvector_baseISaIbEE18_Bvector_impl_data8_M_resetEv, symObjAddr: 0x7818, symBinAddr: 0x10000B74C, symSize: 0x40 }
  - { offset: 0x1C688, size: 0x8, addend: 0x0, symName: __ZSt25__uninitialized_default_nIPimET_S1_T0_, symObjAddr: 0x77C8, symBinAddr: 0x10000B6FC, symSize: 0x50 }
  - { offset: 0x1C6E6, size: 0x8, addend: 0x0, symName: __ZSt12__relocate_aIPSt4pairIiiES2_SaIS1_EET0_T_S5_S4_RT1_, symObjAddr: 0x776C, symBinAddr: 0x10000B6A0, symSize: 0x5C }
  - { offset: 0x1C7CE, size: 0x8, addend: 0x0, symName: __ZNSt4pairIiiEC1IRiS2_EEOT_OT0_, symObjAddr: 0x7724, symBinAddr: 0x10000B658, symSize: 0x48 }
  - { offset: 0x1C814, size: 0x8, addend: 0x0, symName: __ZNSt12_Destroy_auxILb1EE9__destroyIPSt4pairIiiEEEvT_S5_, symObjAddr: 0x770C, symBinAddr: 0x10000B640, symSize: 0x18 }
  - { offset: 0x1C848, size: 0x8, addend: 0x0, symName: __ZNSt12_Destroy_auxILb0EE9__destroyIPSt4pairIiiEEEvT_S5_, symObjAddr: 0x76C0, symBinAddr: 0x10000B5F4, symSize: 0x4C }
  - { offset: 0x1C8BA, size: 0x8, addend: 0x0, symName: __ZSt9__fill_a1IPiiEN9__gnu_cxx11__enable_ifIXsrSt11__is_scalarIT0_E7__valueEvE6__typeET_S8_RKS4_, symObjAddr: 0x7668, symBinAddr: 0x10000B59C, symSize: 0x58 }
  - { offset: 0x1C92F, size: 0x8, addend: 0x0, symName: __ZSt4moveIRSaIiEEONSt16remove_referenceIT_E4typeEOS3_, symObjAddr: 0x7654, symBinAddr: 0x10000B588, symSize: 0x14 }
  - { offset: 0x1C965, size: 0x8, addend: 0x0, symName: __ZNSt12_Vector_baseIiSaIiEE17_Vector_impl_data12_M_copy_dataERKS2_, symObjAddr: 0x760C, symBinAddr: 0x10000B540, symSize: 0x48 }
  - { offset: 0x1C99B, size: 0x8, addend: 0x0, symName: __ZSt10__fill_n_aIP8solutionmS0_ET_S2_T0_RKT1_St26random_access_iterator_tag, symObjAddr: 0x7588, symBinAddr: 0x10000B4BC, symSize: 0x84 }
  - { offset: 0x1CA21, size: 0x8, addend: 0x0, symName: __ZSt20uninitialized_fill_nIP8solutionmS0_ET_S2_T0_RKT1_, symObjAddr: 0x7558, symBinAddr: 0x10000B48C, symSize: 0x30 }
  - { offset: 0x1CA99, size: 0x8, addend: 0x0, symName: __ZSt18__do_uninit_fill_nIP8solutionmS0_ET_S2_T0_RKT1_, symObjAddr: 0x74C8, symBinAddr: 0x10000B3FC, symSize: 0x90 }
  - { offset: 0x1CB11, size: 0x8, addend: 0x0, symName: __ZSt8__fill_aIN9__gnu_cxx17__normal_iteratorIP8solutionSt6vectorIS2_SaIS2_EEEES2_EvT_S8_RKT0_, symObjAddr: 0x7498, symBinAddr: 0x10000B3CC, symSize: 0x30 }
  - { offset: 0x1CB9B, size: 0x8, addend: 0x0, symName: __ZN9__gnu_cxx17__normal_iteratorIP8solutionSt6vectorIS1_SaIS1_EEEC1ERKS2_, symObjAddr: 0x7470, symBinAddr: 0x10000B3A4, symSize: 0x28 }
  - { offset: 0x1CBCA, size: 0x8, addend: 0x0, symName: __ZNSt12_Vector_baseI8solutionSaIS0_EE17_Vector_impl_data12_M_copy_dataERKS3_, symObjAddr: 0x7428, symBinAddr: 0x10000B35C, symSize: 0x48 }
  - { offset: 0x1CC3F, size: 0x8, addend: 0x0, symName: __ZNSt6vectorI8solutionSaIS0_EE18_M_fill_initializeEmRKS0_, symObjAddr: 0x73D0, symBinAddr: 0x10000B304, symSize: 0x58 }
  - { offset: 0x1CCAF, size: 0x8, addend: 0x0, symName: __ZNSt12_Vector_baseI8solutionSaIS0_EED2Ev, symObjAddr: 0x7374, symBinAddr: 0x10000B2A8, symSize: 0x5C }
  - { offset: 0x1CD0B, size: 0x8, addend: 0x0, symName: __ZNSt12_Vector_baseI8solutionSaIS0_EEC2EmRKS1_, symObjAddr: 0x7320, symBinAddr: 0x10000B254, symSize: 0x54 }
  - { offset: 0x1CD6A, size: 0x8, addend: 0x0, symName: __ZNSt12_Vector_baseI8solutionSaIS0_EE12_Vector_implD1Ev, symObjAddr: 0x7300, symBinAddr: 0x10000B234, symSize: 0x20 }
  - { offset: 0x1CE18, size: 0x8, addend: 0x0, symName: __ZNSt12_Vector_baseI8solutionSaIS0_EE12_Vector_implC1ERKS1_, symObjAddr: 0x72B4, symBinAddr: 0x10000B1E8, symSize: 0x4C }
  - { offset: 0x1CE9B, size: 0x8, addend: 0x0, symName: __ZNSt6vectorI8solutionSaIS0_EE17_S_check_init_lenEmRKS1_, symObjAddr: 0x7240, symBinAddr: 0x10000B174, symSize: 0x74 }
  - { offset: 0x1CF4D, size: 0x8, addend: 0x0, symName: __ZNSt20__uninitialized_copyILb1EE13__uninit_copyIPiS2_EET0_T_S4_S3_, symObjAddr: 0x7214, symBinAddr: 0x10000B148, symSize: 0x2C }
  - { offset: 0x1CFA8, size: 0x8, addend: 0x0, symName: __ZSt10_ConstructIiJRiEEvPT_DpOT0_, symObjAddr: 0x71A8, symBinAddr: 0x10000B0DC, symSize: 0x6C }
  - { offset: 0x1D00D, size: 0x8, addend: 0x0, symName: __ZSt12__niter_wrapIPiET_RKS1_S1_, symObjAddr: 0x7190, symBinAddr: 0x10000B0C4, symSize: 0x18 }
  - { offset: 0x1D049, size: 0x8, addend: 0x0, symName: __ZSt14__copy_move_a1ILb0EPiS0_ET1_T0_S2_S1_, symObjAddr: 0x7164, symBinAddr: 0x10000B098, symSize: 0x2C }
  - { offset: 0x1D0B1, size: 0x8, addend: 0x0, symName: __ZSt12__niter_baseIPiET_S1_, symObjAddr: 0x7150, symBinAddr: 0x10000B084, symSize: 0x14 }
  - { offset: 0x1D0E4, size: 0x8, addend: 0x0, symName: __ZNSt12_Destroy_auxILb1EE9__destroyIN9__gnu_cxx17__normal_iteratorIPiSt6vectorIiSaIiEEEEEEvT_S9_, symObjAddr: 0x7138, symBinAddr: 0x10000B06C, symSize: 0x18 }
  - { offset: 0x1D118, size: 0x8, addend: 0x0, symName: __ZNSt12_Destroy_auxILb0EE9__destroyIN9__gnu_cxx17__normal_iteratorIPiSt6vectorIiSaIiEEEEEEvT_S9_, symObjAddr: 0x70DC, symBinAddr: 0x10000B010, symSize: 0x5C }
  - { offset: 0x1D15A, size: 0x8, addend: 0x0, symName: __ZSt12__niter_wrapIN9__gnu_cxx17__normal_iteratorIPiSt6vectorIiSaIiEEEES2_ET_S7_T0_, symObjAddr: 0x7094, symBinAddr: 0x10000AFC8, symSize: 0x48 }
  - { offset: 0x1D1A7, size: 0x8, addend: 0x0, symName: __ZSt14__copy_move_a1ILb0EPKiPiET1_T0_S4_S3_, symObjAddr: 0x7068, symBinAddr: 0x10000AF9C, symSize: 0x2C }
  - { offset: 0x1D20F, size: 0x8, addend: 0x0, symName: __ZSt12__niter_baseIPiSt6vectorIiSaIiEEET_N9__gnu_cxx17__normal_iteratorIS4_T0_EE, symObjAddr: 0x7048, symBinAddr: 0x10000AF7C, symSize: 0x20 }
  - { offset: 0x1D24B, size: 0x8, addend: 0x0, symName: __ZSt12__niter_baseIPKiSt6vectorIiSaIiEEET_N9__gnu_cxx17__normal_iteratorIS5_T0_EE, symObjAddr: 0x7028, symBinAddr: 0x10000AF5C, symSize: 0x20 }
  - { offset: 0x1D287, size: 0x8, addend: 0x0, symName: __ZSt4copyIN9__gnu_cxx17__normal_iteratorIPKiSt6vectorIiSaIiEEEEPiET0_T_SA_S9_, symObjAddr: 0x6FE0, symBinAddr: 0x10000AF14, symSize: 0x48 }
  - { offset: 0x1D315, size: 0x8, addend: 0x0, symName: __ZNSt12_Destroy_auxILb1EE9__destroyIPiEEvT_S3_, symObjAddr: 0x6FC8, symBinAddr: 0x10000AEFC, symSize: 0x18 }
  - { offset: 0x1D349, size: 0x8, addend: 0x0, symName: __ZNSt12_Destroy_auxILb0EE9__destroyIPiEEvT_S3_, symObjAddr: 0x6F7C, symBinAddr: 0x10000AEB0, symSize: 0x4C }
  - { offset: 0x1D38B, size: 0x8, addend: 0x0, symName: __ZSt20uninitialized_fill_nIPimiET_S1_T0_RKT1_, symObjAddr: 0x6F48, symBinAddr: 0x10000AE7C, symSize: 0x34 }
  - { offset: 0x1D403, size: 0x8, addend: 0x0, symName: __ZSt18__do_uninit_fill_nIPimiET_S1_T0_RKT1_, symObjAddr: 0x6EE8, symBinAddr: 0x10000AE1C, symSize: 0x60 }
  - { offset: 0x1D4A7, size: 0x8, addend: 0x0, symName: __ZN9__gnu_cxx17__normal_iteratorIPKSt4pairIiiESt6vectorIS2_SaIS2_EEEC1ERKS4_, symObjAddr: 0x6EC0, symBinAddr: 0x10000ADF4, symSize: 0x28 }
  - { offset: 0x1D503, size: 0x8, addend: 0x0, symName: __ZNSt12_Vector_baseISt4pairIiiESaIS1_EE17_Vector_impl_data12_M_copy_dataERKS4_, symObjAddr: 0x6E78, symBinAddr: 0x10000ADAC, symSize: 0x48 }
  - { offset: 0x1D539, size: 0x8, addend: 0x0, symName: __ZSt12__to_addressIiEPT_S1_, symObjAddr: 0x6E64, symBinAddr: 0x10000AD98, symSize: 0x14 }
  - { offset: 0x1D56B, size: 0x8, addend: 0x0, symName: __ZSt12construct_atIiJRKiEEDTgsnwcvPvLi0E_T_pispcl7declvalIT0_EEEEPS3_DpOS4_, symObjAddr: 0x6E1C, symBinAddr: 0x10000AD50, symSize: 0x48 }
  - { offset: 0x1D5BD, size: 0x8, addend: 0x0, symName: __ZSt7forwardIRKiEOT_RNSt16remove_referenceIS2_E4typeE, symObjAddr: 0x6E08, symBinAddr: 0x10000AD3C, symSize: 0x14 }
  - { offset: 0x1D5F3, size: 0x8, addend: 0x0, symName: __ZNKSt10_HashtableIiiSaIiENSt8__detail9_IdentityESt8equal_toIiESt4hashIiENS1_18_Mod_range_hashingENS1_20_Default_ranged_hashENS1_20_Prime_rehash_policyENS1_17_Hashtable_traitsILb0ELb1ELb1EEEE4findERKi, symObjAddr: 0x6D10, symBinAddr: 0x10000AC44, symSize: 0xF8 }
  - { offset: 0x1D674, size: 0x8, addend: 0x0, symName: __ZNSt10_HashtableIiiSaIiENSt8__detail9_IdentityESt8equal_toIiESt4hashIiENS1_18_Mod_range_hashingENS1_20_Default_ranged_hashENS1_20_Prime_rehash_policyENS1_17_Hashtable_traitsILb0ELb1ELb1EEEE21_M_deallocate_bucketsEPPNS1_15_Hash_node_baseEm, symObjAddr: 0x6CC4, symBinAddr: 0x10000ABF8, symSize: 0x4C }
  - { offset: 0x1D6C0, size: 0x8, addend: 0x0, symName: __ZNSt8__detail16_Hashtable_allocISaINS_10_Hash_nodeIiLb0EEEEE19_M_deallocate_nodesEPS2_, symObjAddr: 0x6C74, symBinAddr: 0x10000ABA8, symSize: 0x50 }
  - { offset: 0x1D71F, size: 0x8, addend: 0x0, symName: __ZNKSt10_HashtableIiiSaIiENSt8__detail9_IdentityESt8equal_toIiESt4hashIiENS1_18_Mod_range_hashingENS1_20_Default_ranged_hashENS1_20_Prime_rehash_policyENS1_17_Hashtable_traitsILb0ELb1ELb1EEEE8_M_beginEv, symObjAddr: 0x6C5C, symBinAddr: 0x10000AB90, symSize: 0x18 }
  - { offset: 0x1D7C5, size: 0x8, addend: 0x0, symName: __ZNSt10_HashtableIiiSaIiENSt8__detail9_IdentityESt8equal_toIiESt4hashIiENS1_18_Mod_range_hashingENS1_20_Default_ranged_hashENS1_20_Prime_rehash_policyENS1_17_Hashtable_traitsILb0ELb1ELb1EEEEC1IN9__gnu_cxx17__normal_iteratorIPiSt6vectorIiS0_EEEEET_SK_mRKS6_RKS4_RKS0_St17integral_constantIbLb1EE, symObjAddr: 0x6BE4, symBinAddr: 0x10000AB18, symSize: 0x78 }
  - { offset: 0x1D82F, size: 0x8, addend: 0x0, symName: __ZSt12__relocate_aIPiS0_SaIiEET0_T_S3_S2_RT1_, symObjAddr: 0x6B88, symBinAddr: 0x10000AABC, symSize: 0x5C }
  - { offset: 0x1D8CB, size: 0x8, addend: 0x0, symName: __ZNSt6vectorIS_IiSaIiEESaIS1_EE11_S_relocateEPS1_S4_S4_RS2_, symObjAddr: 0x6B54, symBinAddr: 0x10000AA88, symSize: 0x34 }
  - { offset: 0x1D928, size: 0x8, addend: 0x0, symName: __ZSt12__to_addressISt6vectorIiSaIiEEEPT_S4_, symObjAddr: 0x6B40, symBinAddr: 0x10000AA74, symSize: 0x14 }
  - { offset: 0x1D95E, size: 0x8, addend: 0x0, symName: __ZNK9__gnu_cxx17__normal_iteratorIPSt6vectorIiSaIiEES1_IS3_SaIS3_EEE4baseEv, symObjAddr: 0x6B2C, symBinAddr: 0x10000AA60, symSize: 0x14 }
  - { offset: 0x1D984, size: 0x8, addend: 0x0, symName: __ZSt12construct_atISt6vectorIiSaIiEEJRKS2_EEDTgsnwcvPvLi0E_T_pispcl7declvalIT0_EEEEPS6_DpOS7_, symObjAddr: 0x6AAC, symBinAddr: 0x10000A9E0, symSize: 0x80 }
  - { offset: 0x1D9D6, size: 0x8, addend: 0x0, symName: __ZSt7forwardIRKSt6vectorIiSaIiEEEOT_RNSt16remove_referenceIS5_E4typeE, symObjAddr: 0x6A98, symBinAddr: 0x10000A9CC, symSize: 0x14 }
  - { offset: 0x1DA39, size: 0x8, addend: 0x0, symName: __ZNSt12_Vector_baseISt6vectorIiSaIiEESaIS2_EE17_Vector_impl_data12_M_swap_dataERS5_, symObjAddr: 0x6A48, symBinAddr: 0x10000A97C, symSize: 0x50 }
  - { offset: 0x1DA7E, size: 0x8, addend: 0x0, symName: __ZSt22__uninitialized_copy_aIN9__gnu_cxx17__normal_iteratorIPiSt6vectorIiSaIiEEEES2_iET0_T_S8_S7_RSaIT1_E, symObjAddr: 0x69F0, symBinAddr: 0x10000A924, symSize: 0x58 }
  - { offset: 0x1DB2F, size: 0x8, addend: 0x0, symName: __ZSt4copyIN9__gnu_cxx17__normal_iteratorIPiSt6vectorIiSaIiEEEES2_ET0_T_S8_S7_, symObjAddr: 0x69A8, symBinAddr: 0x10000A8DC, symSize: 0x48 }
  - { offset: 0x1DB91, size: 0x8, addend: 0x0, symName: __ZNSt6vectorIiSaIiEE20_M_allocate_and_copyIN9__gnu_cxx17__normal_iteratorIPiS1_EEEES5_mT_S7_, symObjAddr: 0x6924, symBinAddr: 0x10000A858, symSize: 0x84 }
  - { offset: 0x1DC34, size: 0x8, addend: 0x0, symName: __ZSt8_DestroyIPSt6vectorIiSaIiEEEvT_S4_, symObjAddr: 0x68E0, symBinAddr: 0x10000A814, symSize: 0x44 }
  - { offset: 0x1DC8F, size: 0x8, addend: 0x0, symName: __ZSt25__uninitialized_default_nIPSt6vectorIiSaIiEEmET_S4_T0_, symObjAddr: 0x6890, symBinAddr: 0x10000A7C4, symSize: 0x50 }
  - { offset: 0x1DD1F, size: 0x8, addend: 0x0, symName: __ZSt8_DestroyIPSt6vectorIS0_IiSaIiEESaIS2_EEEvT_S6_, symObjAddr: 0x684C, symBinAddr: 0x10000A780, symSize: 0x44 }
  - { offset: 0x1DD7A, size: 0x8, addend: 0x0, symName: __ZSt27__uninitialized_default_n_aIPSt6vectorIS0_IiSaIiEESaIS2_EEmS4_ET_S6_T0_RSaIT1_E, symObjAddr: 0x6824, symBinAddr: 0x10000A758, symSize: 0x28 }
  - { offset: 0x1DDDD, size: 0x8, addend: 0x0, symName: __ZNSt12_Vector_baseISt6vectorIS0_IiSaIiEESaIS2_EESaIS4_EE13_M_deallocateEPS4_m, symObjAddr: 0x6798, symBinAddr: 0x10000A6CC, symSize: 0x8C }
  - { offset: 0x1DEAF, size: 0x8, addend: 0x0, symName: __ZNSt12_Vector_baseISt6vectorIS0_IiSaIiEESaIS2_EESaIS4_EE17_M_create_storageEm, symObjAddr: 0x672C, symBinAddr: 0x10000A660, symSize: 0x6C }
  - { offset: 0x1DEE6, size: 0x8, addend: 0x0, symName: __ZNSt6vectorIS_IS_IiSaIiEESaIS1_EESaIS3_EE11_S_max_sizeERKS4_, symObjAddr: 0x66F0, symBinAddr: 0x10000A624, symSize: 0x3C }
  - { offset: 0x1DF36, size: 0x8, addend: 0x0, symName: __ZNKSt13_Bvector_baseISaIbEE13_Bvector_impl11_M_end_addrEv, symObjAddr: 0x66B0, symBinAddr: 0x10000A5E4, symSize: 0x40 }
  - { offset: 0x1DF62, size: 0x8, addend: 0x0, symName: __ZSt11__addressofImEPT_RS0_, symObjAddr: 0x669C, symBinAddr: 0x10000A5D0, symSize: 0x14 }
  - { offset: 0x1DF94, size: 0x8, addend: 0x0, symName: __ZNSt13_Bvector_baseISaIbEE8_S_nwordEm, symObjAddr: 0x6680, symBinAddr: 0x10000A5B4, symSize: 0x1C }
  - { offset: 0x1DFC2, size: 0x8, addend: 0x0, symName: __ZNSt13_Bvector_baseISaIbEE11_M_allocateEm, symObjAddr: 0x6560, symBinAddr: 0x10000A494, symSize: 0x120 }
  - { offset: 0x1E0A5, size: 0x8, addend: 0x0, symName: __ZNSt13_Bvector_baseISaIbEE13_M_deallocateEv, symObjAddr: 0x649C, symBinAddr: 0x10000A3D0, symSize: 0xC4 }
  - { offset: 0x1E195, size: 0x8, addend: 0x0, symName: __ZSt27__uninitialized_default_n_aIPimiET_S1_T0_RSaIT1_E, symObjAddr: 0x6474, symBinAddr: 0x10000A3A8, symSize: 0x28 }
  - { offset: 0x1E1F8, size: 0x8, addend: 0x0, symName: __ZNK9__gnu_cxx17__normal_iteratorIPSt4pairIiiESt6vectorIS2_SaIS2_EEEmiEl, symObjAddr: 0x6430, symBinAddr: 0x10000A364, symSize: 0x44 }
  - { offset: 0x1E22F, size: 0x8, addend: 0x0, symName: __ZNSt6vectorISt4pairIiiESaIS1_EE11_S_relocateEPS1_S4_S4_RS2_, symObjAddr: 0x63FC, symBinAddr: 0x10000A330, symSize: 0x34 }
  - { offset: 0x1E28C, size: 0x8, addend: 0x0, symName: __ZSt12__to_addressISt4pairIiiEEPT_S3_, symObjAddr: 0x63E8, symBinAddr: 0x10000A31C, symSize: 0x14 }
  - { offset: 0x1E2C2, size: 0x8, addend: 0x0, symName: __ZNSt12_Vector_baseISt4pairIiiESaIS1_EE11_M_allocateEm, symObjAddr: 0x6324, symBinAddr: 0x10000A258, symSize: 0xC4 }
  - { offset: 0x1E36C, size: 0x8, addend: 0x0, symName: __ZSt12construct_atISt4pairIiiEJRiS2_EEDTgsnwcvPvLi0E_T_pispcl7declvalIT0_EEEEPS4_DpOS5_, symObjAddr: 0x62C4, symBinAddr: 0x10000A1F8, symSize: 0x60 }
  - { offset: 0x1E3C6, size: 0x8, addend: 0x0, symName: __ZSt8_DestroyIPSt4pairIiiEEvT_S3_, symObjAddr: 0x6280, symBinAddr: 0x10000A1B4, symSize: 0x44 }
  - { offset: 0x1E453, size: 0x8, addend: 0x0, symName: __ZSt9__fill_a1IPiSt6vectorIiSaIiEEiEvN9__gnu_cxx17__normal_iteratorIT_T0_EES8_RKT1_, symObjAddr: 0x6230, symBinAddr: 0x10000A164, symSize: 0x50 }
  - { offset: 0x1E4EB, size: 0x8, addend: 0x0, symName: __ZNSt12_Vector_baseIiSaIiEE17_Vector_impl_data12_M_swap_dataERS2_, symObjAddr: 0x61E0, symBinAddr: 0x10000A114, symSize: 0x50 }
  - { offset: 0x1E530, size: 0x8, addend: 0x0, symName: __ZSt6fill_nIP8solutionmS0_ET_S2_T0_RKT1_, symObjAddr: 0x6198, symBinAddr: 0x10000A0CC, symSize: 0x48 }
  - { offset: 0x1E5BC, size: 0x8, addend: 0x0, symName: __ZNSt6vectorI8solutionSaIS0_EE15_M_erase_at_endEPS0_, symObjAddr: 0x6104, symBinAddr: 0x10000A038, symSize: 0x94 }
  - { offset: 0x1E64D, size: 0x8, addend: 0x0, symName: __ZSt24__uninitialized_fill_n_aIP8solutionmS0_S0_ET_S2_T0_RKT1_RSaIT2_E, symObjAddr: 0x60AC, symBinAddr: 0x100009FE0, symSize: 0x58 }
  - { offset: 0x1E6C6, size: 0x8, addend: 0x0, symName: __ZSt4fillIN9__gnu_cxx17__normal_iteratorIP8solutionSt6vectorIS2_SaIS2_EEEES2_EvT_S8_RKT0_, symObjAddr: 0x607C, symBinAddr: 0x100009FB0, symSize: 0x30 }
  - { offset: 0x1E728, size: 0x8, addend: 0x0, symName: __ZNSt6vectorI8solutionSaIS0_EE3endEv, symObjAddr: 0x6054, symBinAddr: 0x100009F88, symSize: 0x28 }
  - { offset: 0x1E752, size: 0x8, addend: 0x0, symName: __ZNSt6vectorI8solutionSaIS0_EE5beginEv, symObjAddr: 0x6030, symBinAddr: 0x100009F64, symSize: 0x24 }
  - { offset: 0x1E77C, size: 0x8, addend: 0x0, symName: __ZNSt12_Vector_baseI8solutionSaIS0_EE17_Vector_impl_data12_M_swap_dataERS3_, symObjAddr: 0x5FE0, symBinAddr: 0x100009F14, symSize: 0x50 }
  - { offset: 0x1E7DF, size: 0x8, addend: 0x0, symName: __ZNSt12_Vector_baseI8solutionSaIS0_EE17_Vector_impl_dataC2Ev, symObjAddr: 0x5FB4, symBinAddr: 0x100009EE8, symSize: 0x2C }
  - { offset: 0x1E829, size: 0x8, addend: 0x0, symName: __ZNSt6vectorI8solutionSaIS0_EED1Ev, symObjAddr: 0x5F58, symBinAddr: 0x100009E8C, symSize: 0x5C }
  - { offset: 0x1E8C9, size: 0x8, addend: 0x0, symName: __ZNSt6vectorI8solutionSaIS0_EEC1EmRKS0_RKS1_, symObjAddr: 0x5EE8, symBinAddr: 0x100009E1C, symSize: 0x70 }
  - { offset: 0x1E90A, size: 0x8, addend: 0x0, symName: __ZNSt12_Vector_baseI8solutionSaIS0_EE19_M_get_Tp_allocatorEv, symObjAddr: 0x5ED4, symBinAddr: 0x100009E08, symSize: 0x14 }
  - { offset: 0x1E934, size: 0x8, addend: 0x0, symName: __ZNKSt6vectorI8solutionSaIS0_EE8capacityEv, symObjAddr: 0x5EA0, symBinAddr: 0x100009DD4, symSize: 0x34 }
  - { offset: 0x1E95A, size: 0x8, addend: 0x0, symName: __ZSt18uninitialized_copyIPiS0_ET0_T_S2_S1_, symObjAddr: 0x5E64, symBinAddr: 0x100009D98, symSize: 0x3C }
  - { offset: 0x1E9D3, size: 0x8, addend: 0x0, symName: __ZSt16__do_uninit_copyIPiS0_ET0_T_S2_S1_, symObjAddr: 0x5E00, symBinAddr: 0x100009D34, symSize: 0x64 }
  - { offset: 0x1EA3D, size: 0x8, addend: 0x0, symName: __ZSt13__copy_move_aILb0EPiS0_ET1_T0_S2_S1_, symObjAddr: 0x5DA0, symBinAddr: 0x100009CD4, symSize: 0x60 }
  - { offset: 0x1EAA5, size: 0x8, addend: 0x0, symName: __ZSt12__miter_baseIPiET_S1_, symObjAddr: 0x5D8C, symBinAddr: 0x100009CC0, symSize: 0x14 }
  - { offset: 0x1EAD8, size: 0x8, addend: 0x0, symName: __ZSt8_DestroyIN9__gnu_cxx17__normal_iteratorIPiSt6vectorIiSaIiEEEEEvT_S7_, symObjAddr: 0x5D48, symBinAddr: 0x100009C7C, symSize: 0x44 }
  - { offset: 0x1EB33, size: 0x8, addend: 0x0, symName: __ZSt13__copy_move_aILb0EN9__gnu_cxx17__normal_iteratorIPKiSt6vectorIiSaIiEEEENS1_IPiS6_EEET1_T0_SB_SA_, symObjAddr: 0x5CE8, symBinAddr: 0x100009C1C, symSize: 0x60 }
  - { offset: 0x1EB9B, size: 0x8, addend: 0x0, symName: __ZSt12__miter_baseIN9__gnu_cxx17__normal_iteratorIPKiSt6vectorIiSaIiEEEEET_S8_, symObjAddr: 0x5CD4, symBinAddr: 0x100009C08, symSize: 0x14 }
  - { offset: 0x1EBD2, size: 0x8, addend: 0x0, symName: __ZNSt6vectorIiSaIiEE15_M_erase_at_endEPi, symObjAddr: 0x5C4C, symBinAddr: 0x100009B80, symSize: 0x88 }
  - { offset: 0x1EC63, size: 0x8, addend: 0x0, symName: __ZNSt20__uninitialized_copyILb1EE13__uninit_copyIN9__gnu_cxx17__normal_iteratorIPKiSt6vectorIiSaIiEEEEPiEET0_T_SC_SB_, symObjAddr: 0x5C20, symBinAddr: 0x100009B54, symSize: 0x2C }
  - { offset: 0x1ECBE, size: 0x8, addend: 0x0, symName: __ZSt10_ConstructIiJRKiEEvPT_DpOT0_, symObjAddr: 0x5BB4, symBinAddr: 0x100009AE8, symSize: 0x6C }
  - { offset: 0x1ED23, size: 0x8, addend: 0x0, symName: __ZSt11__addressofIiEPT_RS0_, symObjAddr: 0x5BA0, symBinAddr: 0x100009AD4, symSize: 0x14 }
  - { offset: 0x1ED87, size: 0x8, addend: 0x0, symName: __ZSt8_DestroyIPiEvT_S1_, symObjAddr: 0x5B5C, symBinAddr: 0x100009A90, symSize: 0x44 }
  - { offset: 0x1EDE2, size: 0x8, addend: 0x0, symName: __ZSt24__uninitialized_fill_n_aIPimiiET_S1_T0_RKT1_RSaIT2_E, symObjAddr: 0x5B04, symBinAddr: 0x100009A38, symSize: 0x58 }
  - { offset: 0x1EE61, size: 0x8, addend: 0x0, symName: __ZN9__gnu_cxxeqIPKSt4pairIiiESt6vectorIS2_SaIS2_EEEEbRKNS_17__normal_iteratorIT_T0_EESD_QrqXeqcldtfL0p_4baseEcldtfL0p0_4baseERSt14convertible_toIbEE, symObjAddr: 0x5AC0, symBinAddr: 0x1000099F4, symSize: 0x44 }
  - { offset: 0x1EEB2, size: 0x8, addend: 0x0, symName: __ZNK9__gnu_cxx17__normal_iteratorIPKSt4pairIiiESt6vectorIS2_SaIS2_EEE4baseEv, symObjAddr: 0x5AAC, symBinAddr: 0x1000099E0, symSize: 0x14 }
  - { offset: 0x1EEDC, size: 0x8, addend: 0x0, symName: __ZNKSt6vectorISt4pairIiiESaIS1_EE3endEv, symObjAddr: 0x5A84, symBinAddr: 0x1000099B8, symSize: 0x28 }
  - { offset: 0x1EF06, size: 0x8, addend: 0x0, symName: __ZNKSt6vectorISt4pairIiiESaIS1_EE5beginEv, symObjAddr: 0x5A60, symBinAddr: 0x100009994, symSize: 0x24 }
  - { offset: 0x1EF52, size: 0x8, addend: 0x0, symName: __ZNSt12_Vector_baseISt4pairIiiESaIS1_EE17_Vector_impl_data12_M_swap_dataERS4_, symObjAddr: 0x5A10, symBinAddr: 0x100009944, symSize: 0x50 }
  - { offset: 0x1EF9B, size: 0x8, addend: 0x0, symName: __ZNSt6vectorIiSaIiEE17_M_realloc_appendIJRKiEEEvDpOT_, symObjAddr: 0x5888, symBinAddr: 0x1000097BC, symSize: 0x188 }
  - { offset: 0x1F11F, size: 0x8, addend: 0x0, symName: __ZZNSt6vectorIiSaIiEE17_M_realloc_appendIJRKiEEEvDpOT_EN6_GuardC1EPimRS0_, symObjAddr: 0x57B0, symBinAddr: 0x1000096E4, symSize: 0x44 }
  - { offset: 0x1F164, size: 0x8, addend: 0x0, symName: __ZZNSt6vectorIiSaIiEE17_M_realloc_appendIJRKiEEEvDpOT_EN6_GuardD1Ev, symObjAddr: 0x57F4, symBinAddr: 0x100009728, symSize: 0x94 }
  - { offset: 0x1F26F, size: 0x8, addend: 0x0, symName: __ZN9__gnu_cxxmiIPiSt6vectorIiSaIiEEEENS_17__normal_iteratorIT_T0_E15difference_typeERKS8_SB_, symObjAddr: 0x5770, symBinAddr: 0x1000096A4, symSize: 0x40 }
  - { offset: 0x1F2C0, size: 0x8, addend: 0x0, symName: __ZNKSt6vectorIiSaIiEE12_M_check_lenEmPKc, symObjAddr: 0x56A0, symBinAddr: 0x1000095D4, symSize: 0xD0 }
  - { offset: 0x1F319, size: 0x8, addend: 0x0, symName: __ZNSt6vectorIiSaIiEE11_S_max_sizeERKS0_, symObjAddr: 0x566C, symBinAddr: 0x1000095A0, symSize: 0x34 }
  - { offset: 0x1F3AD, size: 0x8, addend: 0x0, symName: __ZNKSt10_HashtableIiiSaIiENSt8__detail9_IdentityESt8equal_toIiESt4hashIiENS1_18_Mod_range_hashingENS1_20_Default_ranged_hashENS1_20_Prime_rehash_policyENS1_17_Hashtable_traitsILb0ELb1ELb1EEEE5countERKi, symObjAddr: 0x562C, symBinAddr: 0x100009560, symSize: 0x40 }
  - { offset: 0x1F418, size: 0x8, addend: 0x0, symName: __ZNSt10_HashtableIiiSaIiENSt8__detail9_IdentityESt8equal_toIiESt4hashIiENS1_18_Mod_range_hashingENS1_20_Default_ranged_hashENS1_20_Prime_rehash_policyENS1_17_Hashtable_traitsILb0ELb1ELb1EEEE21_M_deallocate_bucketsEv, symObjAddr: 0x55F8, symBinAddr: 0x10000952C, symSize: 0x34 }
  - { offset: 0x1F442, size: 0x8, addend: 0x0, symName: __ZNSt10_HashtableIiiSaIiENSt8__detail9_IdentityESt8equal_toIiESt4hashIiENS1_18_Mod_range_hashingENS1_20_Default_ranged_hashENS1_20_Prime_rehash_policyENS1_17_Hashtable_traitsILb0ELb1ELb1EEEE5clearEv, symObjAddr: 0x5598, symBinAddr: 0x1000094CC, symSize: 0x60 }
  - { offset: 0x1F503, size: 0x8, addend: 0x0, symName: __ZNSt10_HashtableIiiSaIiENSt8__detail9_IdentityESt8equal_toIiESt4hashIiENS1_18_Mod_range_hashingENS1_20_Default_ranged_hashENS1_20_Prime_rehash_policyENS1_17_Hashtable_traitsILb0ELb1ELb1EEEEC1IN9__gnu_cxx17__normal_iteratorIPiSt6vectorIiS0_EEEEET_SK_mRKS6_RKS4_RKS0_, symObjAddr: 0x5548, symBinAddr: 0x10000947C, symSize: 0x50 }
  - { offset: 0x1F564, size: 0x8, addend: 0x0, symName: __ZNSt6vectorIiSaIiEE11_S_relocateEPiS2_S2_RS0_, symObjAddr: 0x5514, symBinAddr: 0x100009448, symSize: 0x34 }
  - { offset: 0x1F5C5, size: 0x8, addend: 0x0, symName: __ZNSt12_Vector_baseIiSaIiEE11_M_allocateEm, symObjAddr: 0x5450, symBinAddr: 0x100009384, symSize: 0xC4 }
  - { offset: 0x1F673, size: 0x8, addend: 0x0, symName: __ZNKSt6vectorIiSaIiEE8max_sizeEv, symObjAddr: 0x5430, symBinAddr: 0x100009364, symSize: 0x20 }
  - { offset: 0x1F69D, size: 0x8, addend: 0x0, symName: __ZNSt6vectorIS_IiSaIiEESaIS1_EE17_M_realloc_appendIJRKS1_EEEvDpOT_, symObjAddr: 0x5268, symBinAddr: 0x10000919C, symSize: 0x1C8 }
  - { offset: 0x1F821, size: 0x8, addend: 0x0, symName: __ZZNSt6vectorIS_IiSaIiEESaIS1_EE17_M_realloc_appendIJRKS1_EEEvDpOT_EN6_GuardC1EPS1_mRS2_, symObjAddr: 0x5190, symBinAddr: 0x1000090C4, symSize: 0x44 }
  - { offset: 0x1F866, size: 0x8, addend: 0x0, symName: __ZZNSt6vectorIS_IiSaIiEESaIS1_EE17_M_realloc_appendIJRKS1_EEEvDpOT_EN6_GuardD1Ev, symObjAddr: 0x51D4, symBinAddr: 0x100009108, symSize: 0x94 }
  - { offset: 0x1F963, size: 0x8, addend: 0x0, symName: __ZNSt6vectorIS_IiSaIiEESaIS1_EE5beginEv, symObjAddr: 0x516C, symBinAddr: 0x1000090A0, symSize: 0x24 }
  - { offset: 0x1F98F, size: 0x8, addend: 0x0, symName: __ZN9__gnu_cxxmiIPSt6vectorIiSaIiEES1_IS3_SaIS3_EEEENS_17__normal_iteratorIT_T0_E15difference_typeERKSA_SD_, symObjAddr: 0x5120, symBinAddr: 0x100009054, symSize: 0x4C }
  - { offset: 0x1FA08, size: 0x8, addend: 0x0, symName: __ZN9__gnu_cxx17__normal_iteratorIPSt6vectorIiSaIiEES1_IS3_SaIS3_EEEC1ERKS4_, symObjAddr: 0x50F8, symBinAddr: 0x10000902C, symSize: 0x28 }
  - { offset: 0x1FA37, size: 0x8, addend: 0x0, symName: __ZNSt6vectorIS_IiSaIiEESaIS1_EE3endEv, symObjAddr: 0x50D0, symBinAddr: 0x100009004, symSize: 0x28 }
  - { offset: 0x1FA61, size: 0x8, addend: 0x0, symName: __ZNKSt6vectorIS_IiSaIiEESaIS1_EE12_M_check_lenEmPKc, symObjAddr: 0x5000, symBinAddr: 0x100008F34, symSize: 0xD0 }
  - { offset: 0x1FABE, size: 0x8, addend: 0x0, symName: __ZNKSt6vectorIS_IiSaIiEESaIS1_EE8max_sizeEv, symObjAddr: 0x4FE0, symBinAddr: 0x100008F14, symSize: 0x20 }
  - { offset: 0x1FB2C, size: 0x8, addend: 0x0, symName: __ZNSt6vectorIS_IiSaIiEESaIS1_EE14_M_move_assignEOS3_St17integral_constantIbLb1EE, symObjAddr: 0x4F6C, symBinAddr: 0x100008EA0, symSize: 0x74 }
  - { offset: 0x1FBAF, size: 0x8, addend: 0x0, symName: __ZNKSt12_Vector_baseISt6vectorIiSaIiEESaIS2_EE19_M_get_Tp_allocatorEv, symObjAddr: 0x4F58, symBinAddr: 0x100008E8C, symSize: 0x14 }
  - { offset: 0x1FBDB, size: 0x8, addend: 0x0, symName: __ZSt4moveIRSt6vectorIS0_IiSaIiEESaIS2_EEEONSt16remove_referenceIT_E4typeEOS7_, symObjAddr: 0x4F44, symBinAddr: 0x100008E78, symSize: 0x14 }
  - { offset: 0x1FC11, size: 0x8, addend: 0x0, symName: __ZNSt6vectorIiSaIiEE13_M_assign_auxIN9__gnu_cxx17__normal_iteratorIPiS1_EEEEvT_S7_St20forward_iterator_tag, symObjAddr: 0x4CFC, symBinAddr: 0x100008C30, symSize: 0x248 }
  - { offset: 0x1FE7C, size: 0x8, addend: 0x0, symName: __ZSt27__uninitialized_default_n_aIPSt6vectorIiSaIiEEmS2_ET_S4_T0_RSaIT1_E, symObjAddr: 0x4CD4, symBinAddr: 0x100008C08, symSize: 0x28 }
  - { offset: 0x1FEDF, size: 0x8, addend: 0x0, symName: __ZNSt12_Vector_baseISt6vectorIiSaIiEESaIS2_EE19_M_get_Tp_allocatorEv, symObjAddr: 0x4CC0, symBinAddr: 0x100008BF4, symSize: 0x14 }
  - { offset: 0x1FF09, size: 0x8, addend: 0x0, symName: __ZNSt12_Vector_baseISt6vectorIiSaIiEESaIS2_EE13_M_deallocateEPS2_m, symObjAddr: 0x4C34, symBinAddr: 0x100008B68, symSize: 0x8C }
  - { offset: 0x1FFDB, size: 0x8, addend: 0x0, symName: __ZNSt6vectorIbSaIbEE5beginEv, symObjAddr: 0x4BE4, symBinAddr: 0x100008B18, symSize: 0x50 }
  - { offset: 0x20040, size: 0x8, addend: 0x0, symName: __ZNSt12_Vector_baseISt6vectorIS0_IiSaIiEESaIS2_EESaIS4_EE19_M_get_Tp_allocatorEv, symObjAddr: 0x4BD0, symBinAddr: 0x100008B04, symSize: 0x14 }
  - { offset: 0x2006A, size: 0x8, addend: 0x0, symName: __ZNSt6vectorIS_IS_IiSaIiEESaIS1_EESaIS3_EE21_M_default_initializeEm, symObjAddr: 0x4B80, symBinAddr: 0x100008AB4, symSize: 0x50 }
  - { offset: 0x200C9, size: 0x8, addend: 0x0, symName: __ZNSt12_Vector_baseISt6vectorIS0_IiSaIiEESaIS2_EESaIS4_EED2Ev, symObjAddr: 0x4B24, symBinAddr: 0x100008A58, symSize: 0x5C }
  - { offset: 0x20125, size: 0x8, addend: 0x0, symName: __ZNSt12_Vector_baseISt6vectorIS0_IiSaIiEESaIS2_EESaIS4_EEC2EmRKS5_, symObjAddr: 0x4AD0, symBinAddr: 0x100008A04, symSize: 0x54 }
  - { offset: 0x20184, size: 0x8, addend: 0x0, symName: __ZNSt12_Vector_baseISt6vectorIS0_IiSaIiEESaIS2_EESaIS4_EE12_Vector_implD1Ev, symObjAddr: 0x4AB0, symBinAddr: 0x1000089E4, symSize: 0x20 }
  - { offset: 0x201E7, size: 0x8, addend: 0x0, symName: __ZNSt12_Vector_baseISt6vectorIS0_IiSaIiEESaIS2_EESaIS4_EE17_Vector_impl_dataC2Ev, symObjAddr: 0x4A84, symBinAddr: 0x1000089B8, symSize: 0x2C }
  - { offset: 0x20272, size: 0x8, addend: 0x0, symName: __ZNSt12_Vector_baseISt6vectorIS0_IiSaIiEESaIS2_EESaIS4_EE12_Vector_implC1ERKS5_, symObjAddr: 0x4A38, symBinAddr: 0x10000896C, symSize: 0x4C }
  - { offset: 0x202F5, size: 0x8, addend: 0x0, symName: __ZNSt6vectorIS_IS_IiSaIiEESaIS1_EESaIS3_EE17_S_check_init_lenEmRKS4_, symObjAddr: 0x49C4, symBinAddr: 0x1000088F8, symSize: 0x74 }
  - { offset: 0x203C1, size: 0x8, addend: 0x0, symName: __ZNSt6vectorIbSaIbEE19_M_initialize_valueEb, symObjAddr: 0x4960, symBinAddr: 0x100008894, symSize: 0x64 }
  - { offset: 0x20420, size: 0x8, addend: 0x0, symName: __ZNSt6vectorIbSaIbEE13_M_initializeEm, symObjAddr: 0x48A8, symBinAddr: 0x1000087DC, symSize: 0xB8 }
  - { offset: 0x204B4, size: 0x8, addend: 0x0, symName: __ZNSt13_Bvector_baseISaIbEED2Ev, symObjAddr: 0x4880, symBinAddr: 0x1000087B4, symSize: 0x28 }
  - { offset: 0x20502, size: 0x8, addend: 0x0, symName: __ZNSt13_Bvector_baseISaIbEEC2ERKS0_, symObjAddr: 0x483C, symBinAddr: 0x100008770, symSize: 0x44 }
  - { offset: 0x205C7, size: 0x8, addend: 0x0, symName: __ZNSt13_Bvector_baseISaIbEE13_Bvector_implD1Ev, symObjAddr: 0x481C, symBinAddr: 0x100008750, symSize: 0x20 }
  - { offset: 0x2062B, size: 0x8, addend: 0x0, symName: __ZNSt13_Bvector_baseISaIbEE18_Bvector_impl_dataC1Ev, symObjAddr: 0x47E8, symBinAddr: 0x10000871C, symSize: 0x34 }
  - { offset: 0x20655, size: 0x8, addend: 0x0, symName: __ZNSt13_Bvector_baseISaIbEE18_Bvector_impl_dataC2Ev, symObjAddr: 0x47B4, symBinAddr: 0x1000086E8, symSize: 0x34 }
  - { offset: 0x206E1, size: 0x8, addend: 0x0, symName: __ZNSt13_Bvector_baseISaIbEE13_Bvector_implC1ERKSaImE, symObjAddr: 0x4768, symBinAddr: 0x10000869C, symSize: 0x4C }
  - { offset: 0x207B9, size: 0x8, addend: 0x0, symName: __ZNSt6vectorIiSaIiEE21_M_default_initializeEm, symObjAddr: 0x4718, symBinAddr: 0x10000864C, symSize: 0x50 }
  - { offset: 0x207F4, size: 0x8, addend: 0x0, symName: __ZNSt6vectorISt4pairIiiESaIS1_EE4backEv, symObjAddr: 0x46E0, symBinAddr: 0x100008614, symSize: 0x38 }
  - { offset: 0x2081E, size: 0x8, addend: 0x0, symName: __ZNSt6vectorISt4pairIiiESaIS1_EE17_M_realloc_appendIJRiS5_EEEvDpOT_, symObjAddr: 0x452C, symBinAddr: 0x100008460, symSize: 0x1B4 }
  - { offset: 0x209B1, size: 0x8, addend: 0x0, symName: __ZZNSt6vectorISt4pairIiiESaIS1_EE17_M_realloc_appendIJRiS5_EEEvDpOT_EN6_GuardC1EPS1_mRS2_, symObjAddr: 0x4454, symBinAddr: 0x100008388, symSize: 0x44 }
  - { offset: 0x209F6, size: 0x8, addend: 0x0, symName: __ZZNSt6vectorISt4pairIiiESaIS1_EE17_M_realloc_appendIJRiS5_EEEvDpOT_EN6_GuardD1Ev, symObjAddr: 0x4498, symBinAddr: 0x1000083CC, symSize: 0x94 }
  - { offset: 0x20B0B, size: 0x8, addend: 0x0, symName: __ZN9__gnu_cxxmiIPSt4pairIiiESt6vectorIS2_SaIS2_EEEENS_17__normal_iteratorIT_T0_E15difference_typeERKSA_SD_, symObjAddr: 0x4414, symBinAddr: 0x100008348, symSize: 0x40 }
  - { offset: 0x20B84, size: 0x8, addend: 0x0, symName: __ZN9__gnu_cxx17__normal_iteratorIPSt4pairIiiESt6vectorIS2_SaIS2_EEEC1ERKS3_, symObjAddr: 0x43EC, symBinAddr: 0x100008320, symSize: 0x28 }
  - { offset: 0x20BB3, size: 0x8, addend: 0x0, symName: __ZNKSt6vectorISt4pairIiiESaIS1_EE12_M_check_lenEmPKc, symObjAddr: 0x431C, symBinAddr: 0x100008250, symSize: 0xD0 }
  - { offset: 0x20C0C, size: 0x8, addend: 0x0, symName: __ZNSt6vectorISt4pairIiiESaIS1_EE11_S_max_sizeERKS2_, symObjAddr: 0x42E8, symBinAddr: 0x10000821C, symSize: 0x34 }
  - { offset: 0x20C5C, size: 0x8, addend: 0x0, symName: __ZNKSt12_Vector_baseISt4pairIiiESaIS1_EE19_M_get_Tp_allocatorEv, symObjAddr: 0x42D4, symBinAddr: 0x100008208, symSize: 0x14 }
  - { offset: 0x20C86, size: 0x8, addend: 0x0, symName: __ZNKSt6vectorISt4pairIiiESaIS1_EE8max_sizeEv, symObjAddr: 0x42B4, symBinAddr: 0x1000081E8, symSize: 0x20 }
  - { offset: 0x20D00, size: 0x8, addend: 0x0, symName: __ZSt7forwardIRiEOT_RNSt16remove_referenceIS1_E4typeE, symObjAddr: 0x42A0, symBinAddr: 0x1000081D4, symSize: 0x14 }
  - { offset: 0x20D71, size: 0x8, addend: 0x0, symName: __ZNSt12_Vector_baseISt4pairIiiESaIS1_EE13_M_deallocateEPS1_m, symObjAddr: 0x4214, symBinAddr: 0x100008148, symSize: 0x8C }
  - { offset: 0x20E3F, size: 0x8, addend: 0x0, symName: __ZSt8__fill_aIN9__gnu_cxx17__normal_iteratorIPiSt6vectorIiSaIiEEEEiEvT_S7_RKT0_, symObjAddr: 0x41E4, symBinAddr: 0x100008118, symSize: 0x30 }
  - { offset: 0x20EC9, size: 0x8, addend: 0x0, symName: __ZN9__gnu_cxx17__normal_iteratorIPiSt6vectorIiSaIiEEEC1ERKS1_, symObjAddr: 0x41BC, symBinAddr: 0x1000080F0, symSize: 0x28 }
  - { offset: 0x20EF8, size: 0x8, addend: 0x0, symName: __ZNSt6vectorIiSaIiEE14_M_move_assignEOS1_St17integral_constantIbLb1EE, symObjAddr: 0x4148, symBinAddr: 0x10000807C, symSize: 0x74 }
  - { offset: 0x20F7D, size: 0x8, addend: 0x0, symName: __ZSt4moveIRSt6vectorIiSaIiEEEONSt16remove_referenceIT_E4typeEOS5_, symObjAddr: 0x4134, symBinAddr: 0x100008068, symSize: 0x14 }
  - { offset: 0x20FB3, size: 0x8, addend: 0x0, symName: __ZNSt6vectorI8solutionSaIS0_EE14_M_fill_assignEmRKS0_, symObjAddr: 0x3FF4, symBinAddr: 0x100007F28, symSize: 0x140 }
  - { offset: 0x21059, size: 0x8, addend: 0x0, symName: __ZNKSt6vectorI8solutionSaIS0_EE4sizeEv, symObjAddr: 0x3FC0, symBinAddr: 0x100007EF4, symSize: 0x34 }
  - { offset: 0x2107F, size: 0x8, addend: 0x0, symName: __ZSt22__uninitialized_copy_aIPiS0_iET0_T_S2_S1_RSaIT1_E, symObjAddr: 0x3F68, symBinAddr: 0x100007E9C, symSize: 0x58 }
  - { offset: 0x210EF, size: 0x8, addend: 0x0, symName: __ZSt4copyIPiS0_ET0_T_S2_S1_, symObjAddr: 0x3F20, symBinAddr: 0x100007E54, symSize: 0x48 }
  - { offset: 0x21188, size: 0x8, addend: 0x0, symName: __ZSt4copyIN9__gnu_cxx17__normal_iteratorIPKiSt6vectorIiSaIiEEEENS1_IPiS6_EEET0_T_SB_SA_, symObjAddr: 0x3ED8, symBinAddr: 0x100007E0C, symSize: 0x48 }
  - { offset: 0x211EA, size: 0x8, addend: 0x0, symName: __ZNSt6vectorIiSaIiEE20_M_allocate_and_copyIN9__gnu_cxx17__normal_iteratorIPKiS1_EEEEPimT_S9_, symObjAddr: 0x3E54, symBinAddr: 0x100007D88, symSize: 0x84 }
  - { offset: 0x2128E, size: 0x8, addend: 0x0, symName: __ZNSt6vectorIiSaIiEE5clearEv, symObjAddr: 0x3E28, symBinAddr: 0x100007D5C, symSize: 0x2C }
  - { offset: 0x212C6, size: 0x8, addend: 0x0, symName: __ZSt18uninitialized_copyIN9__gnu_cxx17__normal_iteratorIPKiSt6vectorIiSaIiEEEEPiET0_T_SA_S9_, symObjAddr: 0x3DEC, symBinAddr: 0x100007D20, symSize: 0x3C }
  - { offset: 0x2133F, size: 0x8, addend: 0x0, symName: __ZSt16__do_uninit_copyIN9__gnu_cxx17__normal_iteratorIPKiSt6vectorIiSaIiEEEEPiET0_T_SA_S9_, symObjAddr: 0x3D64, symBinAddr: 0x100007C98, symSize: 0x88 }
  - { offset: 0x213AD, size: 0x8, addend: 0x0, symName: __ZNSt12_Vector_baseIiSaIiEE13_M_deallocateEPim, symObjAddr: 0x3CD8, symBinAddr: 0x100007C0C, symSize: 0x8C }
  - { offset: 0x2147F, size: 0x8, addend: 0x0, symName: __ZNSt12_Vector_baseIiSaIiEE17_M_create_storageEm, symObjAddr: 0x3C78, symBinAddr: 0x100007BAC, symSize: 0x60 }
  - { offset: 0x214D2, size: 0x8, addend: 0x0, symName: __ZSt7forwardIbEOT_RNSt16remove_referenceIS0_E4typeE, symObjAddr: 0x3C64, symBinAddr: 0x100007B98, symSize: 0x14 }
  - { offset: 0x21543, size: 0x8, addend: 0x0, symName: __ZNSt6vectorIiSaIiEE18_M_fill_initializeEmRKi, symObjAddr: 0x3C0C, symBinAddr: 0x100007B40, symSize: 0x58 }
  - { offset: 0x2158B, size: 0x8, addend: 0x0, symName: __ZNSt6vectorIiSaIiEE17_S_check_init_lenEmRKS0_, symObjAddr: 0x3B98, symBinAddr: 0x100007ACC, symSize: 0x74 }
  - { offset: 0x21641, size: 0x8, addend: 0x0, symName: __ZNKSt6vectorISt4pairIiiESaIS1_EE5emptyEv, symObjAddr: 0x3B60, symBinAddr: 0x100007A94, symSize: 0x38 }
  - { offset: 0x2166B, size: 0x8, addend: 0x0, symName: __ZNSt6vectorISt4pairIiiESaIS1_EE4swapERS3_, symObjAddr: 0x3AAC, symBinAddr: 0x1000079E0, symSize: 0xB4 }
  - { offset: 0x21758, size: 0x8, addend: 0x0, symName: __ZNSt12_Vector_baseISt4pairIiiESaIS1_EE19_M_get_Tp_allocatorEv, symObjAddr: 0x3A98, symBinAddr: 0x1000079CC, symSize: 0x14 }
  - { offset: 0x21782, size: 0x8, addend: 0x0, symName: __ZN9__gnu_cxx17__normal_iteratorIPiSt6vectorIiSaIiEEEppEv, symObjAddr: 0x3A70, symBinAddr: 0x1000079A4, symSize: 0x28 }
  - { offset: 0x217AC, size: 0x8, addend: 0x0, symName: __ZNSt6vectorIiSaIiEE9push_backERKi, symObjAddr: 0x39E4, symBinAddr: 0x100007918, symSize: 0x8C }
  - { offset: 0x2181D, size: 0x8, addend: 0x0, symName: __ZNKSt13unordered_setIiSt4hashIiESt8equal_toIiESaIiEE5countERKi, symObjAddr: 0x39C0, symBinAddr: 0x1000078F4, symSize: 0x24 }
  - { offset: 0x2187C, size: 0x8, addend: 0x0, symName: __ZNSt10_HashtableIiiSaIiENSt8__detail9_IdentityESt8equal_toIiESt4hashIiENS1_18_Mod_range_hashingENS1_20_Default_ranged_hashENS1_20_Prime_rehash_policyENS1_17_Hashtable_traitsILb0ELb1ELb1EEEED1Ev, symObjAddr: 0x3990, symBinAddr: 0x1000078C4, symSize: 0x30 }
  - { offset: 0x218CA, size: 0x8, addend: 0x0, symName: __ZNSt8__detail16_Hashtable_allocISaINS_10_Hash_nodeIiLb0EEEEED2Ev, symObjAddr: 0x3970, symBinAddr: 0x1000078A4, symSize: 0x20 }
  - { offset: 0x21918, size: 0x8, addend: 0x0, symName: __ZNSt8__detail21_Hashtable_ebo_helperILi0ESaINS_10_Hash_nodeIiLb0EEEELb1EED2Ev, symObjAddr: 0x3950, symBinAddr: 0x100007884, symSize: 0x20 }
  - { offset: 0x219D3, size: 0x8, addend: 0x0, symName: __ZNSt13unordered_setIiSt4hashIiESt8equal_toIiESaIiEEC1IN9__gnu_cxx17__normal_iteratorIPiSt6vectorIiS4_EEEEET_SD_mRKS1_RKS3_RKS4_, symObjAddr: 0x3900, symBinAddr: 0x100007834, symSize: 0x50 }
  - { offset: 0x21A38, size: 0x8, addend: 0x0, symName: __ZNSt6vectorIiSaIiEE7reserveEm, symObjAddr: 0x37C4, symBinAddr: 0x1000076F8, symSize: 0x13C }
  - { offset: 0x21AA3, size: 0x8, addend: 0x0, symName: __ZNKSt6vectorIiSaIiEE8capacityEv, symObjAddr: 0x379C, symBinAddr: 0x1000076D0, symSize: 0x28 }
  - { offset: 0x21ACF, size: 0x8, addend: 0x0, symName: __ZN9__gnu_cxxeqIPKSt6vectorIiSaIiEES1_IS3_SaIS3_EEEEbRKNS_17__normal_iteratorIT_T0_EESD_QrqXeqcldtfL0p_4baseEcldtfL0p0_4baseERSt14convertible_toIbEE, symObjAddr: 0x3758, symBinAddr: 0x10000768C, symSize: 0x44 }
  - { offset: 0x21B20, size: 0x8, addend: 0x0, symName: __ZNK9__gnu_cxx17__normal_iteratorIPKSt6vectorIiSaIiEES1_IS3_SaIS3_EEE4baseEv, symObjAddr: 0x3744, symBinAddr: 0x100007678, symSize: 0x14 }
  - { offset: 0x21B4A, size: 0x8, addend: 0x0, symName: __ZNKSt6vectorIS_IiSaIiEESaIS1_EE3endEv, symObjAddr: 0x371C, symBinAddr: 0x100007650, symSize: 0x28 }
  - { offset: 0x21B74, size: 0x8, addend: 0x0, symName: __ZNSt6vectorIS_IiSaIiEESaIS1_EE9push_backERKS1_, symObjAddr: 0x3690, symBinAddr: 0x1000075C4, symSize: 0x8C }
  - { offset: 0x21BE5, size: 0x8, addend: 0x0, symName: __ZNSt6vectorIS_IiSaIiEESaIS1_EEaSEOS3_, symObjAddr: 0x364C, symBinAddr: 0x100007580, symSize: 0x44 }
  - { offset: 0x21C31, size: 0x8, addend: 0x0, symName: __ZNSt6vectorIiSaIiEE6assignIN9__gnu_cxx17__normal_iteratorIPiS1_EEvEEvT_S7_, symObjAddr: 0x3618, symBinAddr: 0x10000754C, symSize: 0x34 }
  - { offset: 0x21CA7, size: 0x8, addend: 0x0, symName: __ZNK9__gnu_cxx17__normal_iteratorIPiSt6vectorIiSaIiEEEplEl, symObjAddr: 0x35D8, symBinAddr: 0x10000750C, symSize: 0x40 }
  - { offset: 0x21D06, size: 0x8, addend: 0x0, symName: __ZNSt6vectorIS_IiSaIiEESaIS1_EED1Ev, symObjAddr: 0x357C, symBinAddr: 0x1000074B0, symSize: 0x5C }
  - { offset: 0x21D62, size: 0x8, addend: 0x0, symName: __ZNSt15__new_allocatorISt6vectorIiSaIiEEE8allocateEmPKv, symObjAddr: 0x34EC, symBinAddr: 0x100007420, symSize: 0x90 }
  - { offset: 0x21DEE, size: 0x8, addend: 0x0, symName: __ZNSt6vectorIS_IiSaIiEESaIS1_EE21_M_default_initializeEm, symObjAddr: 0x349C, symBinAddr: 0x1000073D0, symSize: 0x50 }
  - { offset: 0x21E4D, size: 0x8, addend: 0x0, symName: __ZNSt12_Vector_baseISt6vectorIiSaIiEESaIS2_EED2Ev, symObjAddr: 0x3440, symBinAddr: 0x100007374, symSize: 0x5C }
  - { offset: 0x21E73, size: 0x8, addend: 0x0, symName: __ZNSt6vectorIbSaIbEEixEm, symObjAddr: 0x3410, symBinAddr: 0x100007344, symSize: 0x30 }
  - { offset: 0x21EAE, size: 0x8, addend: 0x0, symName: __ZN9__gnu_cxx17__normal_iteratorIPSt4pairIiiESt6vectorIS2_SaIS2_EEEppEv, symObjAddr: 0x33E8, symBinAddr: 0x10000731C, symSize: 0x28 }
  - { offset: 0x21ED8, size: 0x8, addend: 0x0, symName: __ZNSt6vectorISt4pairIiiESaIS1_EE3endEv, symObjAddr: 0x33C0, symBinAddr: 0x1000072F4, symSize: 0x28 }
  - { offset: 0x21F02, size: 0x8, addend: 0x0, symName: __ZNSt6vectorISt4pairIiiESaIS1_EE5beginEv, symObjAddr: 0x339C, symBinAddr: 0x1000072D0, symSize: 0x24 }
  - { offset: 0x21F50, size: 0x8, addend: 0x0, symName: __ZNSt6vectorIS_IS_IiSaIiEESaIS1_EESaIS3_EED1Ev, symObjAddr: 0x3340, symBinAddr: 0x100007274, symSize: 0x5C }
  - { offset: 0x21FE2, size: 0x8, addend: 0x0, symName: __ZNSt6vectorIS_IS_IiSaIiEESaIS1_EESaIS3_EEC1EmRKS4_, symObjAddr: 0x32D8, symBinAddr: 0x10000720C, symSize: 0x68 }
  - { offset: 0x22074, size: 0x8, addend: 0x0, symName: __ZNSt6vectorIbSaIbEED1Ev, symObjAddr: 0x32B8, symBinAddr: 0x1000071EC, symSize: 0x20 }
  - { offset: 0x220DE, size: 0x8, addend: 0x0, symName: __ZNSt6vectorIbSaIbEEC1EmRKbRKS0_, symObjAddr: 0x324C, symBinAddr: 0x100007180, symSize: 0x6C }
  - { offset: 0x2218B, size: 0x8, addend: 0x0, symName: __ZNSt6vectorIiSaIiEEC1EmRKS0_, symObjAddr: 0x31E4, symBinAddr: 0x100007118, symSize: 0x68 }
  - { offset: 0x221C3, size: 0x8, addend: 0x0, symName: __ZNSt6vectorISt4pairIiiESaIS1_EE12emplace_backIJRiS5_EEERS1_DpOT_, symObjAddr: 0x3104, symBinAddr: 0x100007038, symSize: 0xE0 }
  - { offset: 0x22277, size: 0x8, addend: 0x0, symName: __ZNSt6vectorISt4pairIiiESaIS1_EED1Ev, symObjAddr: 0x30A8, symBinAddr: 0x100006FDC, symSize: 0x5C }
  - { offset: 0x222F7, size: 0x8, addend: 0x0, symName: __ZNSt12_Vector_baseISt4pairIiiESaIS1_EED2Ev, symObjAddr: 0x3058, symBinAddr: 0x100006F8C, symSize: 0x50 }
  - { offset: 0x22339, size: 0x8, addend: 0x0, symName: __ZSt4fillIN9__gnu_cxx17__normal_iteratorIPiSt6vectorIiSaIiEEEEiEvT_S7_RKT0_, symObjAddr: 0x3028, symBinAddr: 0x100006F5C, symSize: 0x30 }
  - { offset: 0x2239B, size: 0x8, addend: 0x0, symName: __ZNSt6vectorIiSaIiEE3endEv, symObjAddr: 0x3000, symBinAddr: 0x100006F34, symSize: 0x28 }
  - { offset: 0x223C5, size: 0x8, addend: 0x0, symName: __ZNSt6vectorIiSaIiEE5beginEv, symObjAddr: 0x2FDC, symBinAddr: 0x100006F10, symSize: 0x24 }
  - { offset: 0x223EF, size: 0x8, addend: 0x0, symName: __ZNSt6vectorIiSaIiEEaSEOS1_, symObjAddr: 0x2F98, symBinAddr: 0x100006ECC, symSize: 0x44 }
  - { offset: 0x2243B, size: 0x8, addend: 0x0, symName: __ZNSt6vectorI8solutionSaIS0_EE6assignEmRKS0_, symObjAddr: 0x2F68, symBinAddr: 0x100006E9C, symSize: 0x30 }
  - { offset: 0x22483, size: 0x8, addend: 0x0, symName: __ZSt3maxIiERKT_S2_S2_, symObjAddr: 0x2F30, symBinAddr: 0x100006E64, symSize: 0x38 }
  - { offset: 0x224C7, size: 0x8, addend: 0x0, symName: __ZSt4log2IiEN9__gnu_cxx11__enable_ifIXsrSt12__is_integerIT_E7__valueEdE6__typeES3_, symObjAddr: 0x2F04, symBinAddr: 0x100006E38, symSize: 0x2C }
  - { offset: 0x224FE, size: 0x8, addend: 0x0, symName: __ZNSt6vectorIiSaIiEEaSERKS1_, symObjAddr: 0x2BB4, symBinAddr: 0x100006AE8, symSize: 0x350 }
  - { offset: 0x22679, size: 0x8, addend: 0x0, symName: __ZSt11__addressofIKSt6vectorIiSaIiEEEPT_RS4_, symObjAddr: 0x2BA0, symBinAddr: 0x100006AD4, symSize: 0x14 }
  - { offset: 0x226AF, size: 0x8, addend: 0x0, symName: __ZNKSt6vectorIiSaIiEEixEm, symObjAddr: 0x2B78, symBinAddr: 0x100006AAC, symSize: 0x28 }
  - { offset: 0x226EA, size: 0x8, addend: 0x0, symName: __ZN9__gnu_cxx17__normal_iteratorIPKiSt6vectorIiSaIiEEEppEv, symObjAddr: 0x2B50, symBinAddr: 0x100006A84, symSize: 0x28 }
  - { offset: 0x22710, size: 0x8, addend: 0x0, symName: __ZSt22__uninitialized_copy_aIN9__gnu_cxx17__normal_iteratorIPKiSt6vectorIiSaIiEEEEPiiET0_T_SA_S9_RSaIT1_E, symObjAddr: 0x2AF8, symBinAddr: 0x100006A2C, symSize: 0x58 }
  - { offset: 0x22784, size: 0x8, addend: 0x0, symName: __ZNSt12_Vector_baseIiSaIiEE19_M_get_Tp_allocatorEv, symObjAddr: 0x2AE4, symBinAddr: 0x100006A18, symSize: 0x14 }
  - { offset: 0x227D2, size: 0x8, addend: 0x0, symName: __ZNSt12_Vector_baseIiSaIiEED2Ev, symObjAddr: 0x2A94, symBinAddr: 0x1000069C8, symSize: 0x50 }
  - { offset: 0x2282E, size: 0x8, addend: 0x0, symName: __ZNSt12_Vector_baseIiSaIiEEC2EmRKS0_, symObjAddr: 0x2A40, symBinAddr: 0x100006974, symSize: 0x54 }
  - { offset: 0x228CB, size: 0x8, addend: 0x0, symName: __ZNSt12_Vector_baseIiSaIiEE12_Vector_implC1ERKS0_, symObjAddr: 0x29F4, symBinAddr: 0x100006928, symSize: 0x4C }
  - { offset: 0x22967, size: 0x8, addend: 0x0, symName: __ZNKSt12_Vector_baseIiSaIiEE19_M_get_Tp_allocatorEv, symObjAddr: 0x29E0, symBinAddr: 0x100006914, symSize: 0x14 }
  - { offset: 0x22991, size: 0x8, addend: 0x0, symName: __ZNSt6vectorI8solutionSaIS0_EEixEm, symObjAddr: 0x29AC, symBinAddr: 0x1000068E0, symSize: 0x34 }
  - { offset: 0x229C8, size: 0x8, addend: 0x0, symName: __ZSt3maxImERKT_S2_S2_, symObjAddr: 0x2974, symBinAddr: 0x1000068A8, symSize: 0x38 }
  - { offset: 0x22A34, size: 0x8, addend: 0x0, symName: __ZNSt6vectorIiSaIiEED1Ev, symObjAddr: 0x2918, symBinAddr: 0x10000684C, symSize: 0x5C }
  - { offset: 0x22AD4, size: 0x8, addend: 0x0, symName: __ZNSt6vectorIiSaIiEEC1EmRKiRKS0_, symObjAddr: 0x28A8, symBinAddr: 0x1000067DC, symSize: 0x70 }
  - { offset: 0x22B38, size: 0x8, addend: 0x0, symName: __Z18adaptiveMinWitnessRKSt6vectorIS_IiSaIiEESaIS1_EES5_RS3_RS1_, symObjAddr: 0x1C80, symBinAddr: 0x100005BB4, symSize: 0xC28 }
  - { offset: 0x232AE, size: 0x8, addend: 0x0, symName: __ZNSt6vectorIiSaIiEEixEm, symObjAddr: 0x1C58, symBinAddr: 0x100005B8C, symSize: 0x28 }
  - { offset: 0x232E9, size: 0x8, addend: 0x0, symName: __ZNK9__gnu_cxx17__normal_iteratorIPiSt6vectorIiSaIiEEEdeEv, symObjAddr: 0x1C40, symBinAddr: 0x100005B74, symSize: 0x18 }
  - { offset: 0x2330F, size: 0x8, addend: 0x0, symName: __ZN9__gnu_cxxeqIPiSt6vectorIiSaIiEEEEbRKNS_17__normal_iteratorIT_T0_EESA_QrqXeqcldtfL0p_4baseEcldtfL0p0_4baseERSt14convertible_toIbEE, symObjAddr: 0x1BFC, symBinAddr: 0x100005B30, symSize: 0x44 }
  - { offset: 0x23360, size: 0x8, addend: 0x0, symName: __ZNK9__gnu_cxx17__normal_iteratorIPiSt6vectorIiSaIiEEE4baseEv, symObjAddr: 0x1BE8, symBinAddr: 0x100005B1C, symSize: 0x14 }
  - { offset: 0x2338A, size: 0x8, addend: 0x0, symName: __ZNKSt6vectorIiSaIiEE5emptyEv, symObjAddr: 0x1BB0, symBinAddr: 0x100005AE4, symSize: 0x38 }
  - { offset: 0x233DB, size: 0x8, addend: 0x0, symName: __ZNSt13unordered_setIiSt4hashIiESt8equal_toIiESaIiEED1Ev, symObjAddr: 0x1B90, symBinAddr: 0x100005AC4, symSize: 0x20 }
  - { offset: 0x23429, size: 0x8, addend: 0x0, symName: __ZN9__gnu_cxx17__normal_iteratorIPKSt6vectorIiSaIiEES1_IS3_SaIS3_EEEC1ERKS5_, symObjAddr: 0x1B68, symBinAddr: 0x100005A9C, symSize: 0x28 }
  - { offset: 0x23458, size: 0x8, addend: 0x0, symName: __ZNKSt6vectorIS_IiSaIiEESaIS1_EE5beginEv, symObjAddr: 0x1B44, symBinAddr: 0x100005A78, symSize: 0x24 }
  - { offset: 0x23482, size: 0x8, addend: 0x0, symName: __ZNKSt6vectorIS_IiSaIiEESaIS1_EE5emptyEv, symObjAddr: 0x1B0C, symBinAddr: 0x100005A40, symSize: 0x38 }
  - { offset: 0x234AC, size: 0x8, addend: 0x0, symName: __ZNSt6vectorIS_IS_IiSaIiEESaIS1_EESaIS3_EEixEm, symObjAddr: 0x1AD8, symBinAddr: 0x100005A0C, symSize: 0x34 }
  - { offset: 0x234E7, size: 0x8, addend: 0x0, symName: __ZNSt6vectorIS_IiSaIiEESaIS1_EEixEm, symObjAddr: 0x1AA4, symBinAddr: 0x1000059D8, symSize: 0x34 }
  - { offset: 0x2353C, size: 0x8, addend: 0x0, symName: __ZNSt6vectorIS_IiSaIiEESaIS1_EEC1Ev, symObjAddr: 0x1A84, symBinAddr: 0x1000059B8, symSize: 0x20 }
  - { offset: 0x2357C, size: 0x8, addend: 0x0, symName: __ZNSt12_Vector_baseISt6vectorIiSaIiEESaIS2_EEC2Ev, symObjAddr: 0x1A64, symBinAddr: 0x100005998, symSize: 0x20 }
  - { offset: 0x235BC, size: 0x8, addend: 0x0, symName: __ZNSt12_Vector_baseISt6vectorIiSaIiEESaIS2_EE12_Vector_implC1EvQ26is_default_constructible_vIN9__gnu_cxx14__alloc_traitsIT0_NS8_10value_typeEE6rebindIT_E5otherEE, symObjAddr: 0x1A2C, symBinAddr: 0x100005960, symSize: 0x38 }
  - { offset: 0x2366F, size: 0x8, addend: 0x0, symName: __ZNSt12_Vector_baseISt6vectorIiSaIiEESaIS2_EE11_M_allocateEm, symObjAddr: 0x1954, symBinAddr: 0x100005888, symSize: 0xD8 }
  - { offset: 0x2371D, size: 0x8, addend: 0x0, symName: __ZNSt12_Vector_baseISt6vectorIiSaIiEESaIS2_EE17_M_create_storageEm, symObjAddr: 0x18E8, symBinAddr: 0x10000581C, symSize: 0x6C }
  - { offset: 0x2378E, size: 0x8, addend: 0x0, symName: __ZNSt12_Vector_baseISt6vectorIiSaIiEESaIS2_EEC2EmRKS3_, symObjAddr: 0x1894, symBinAddr: 0x1000057C8, symSize: 0x54 }
  - { offset: 0x237ED, size: 0x8, addend: 0x0, symName: __ZNSt12_Vector_baseISt6vectorIiSaIiEESaIS2_EE12_Vector_implD1Ev, symObjAddr: 0x1874, symBinAddr: 0x1000057A8, symSize: 0x20 }
  - { offset: 0x23850, size: 0x8, addend: 0x0, symName: __ZNSt12_Vector_baseISt6vectorIiSaIiEESaIS2_EE17_Vector_impl_dataC2Ev, symObjAddr: 0x1848, symBinAddr: 0x10000577C, symSize: 0x2C }
  - { offset: 0x2389D, size: 0x8, addend: 0x0, symName: __ZNSt12_Vector_baseISt6vectorIiSaIiEESaIS2_EE12_Vector_implC1ERKS3_, symObjAddr: 0x17FC, symBinAddr: 0x100005730, symSize: 0x4C }
  - { offset: 0x23940, size: 0x8, addend: 0x0, symName: __ZNSt6vectorIS_IiSaIiEESaIS1_EE11_S_max_sizeERKS2_, symObjAddr: 0x17C0, symBinAddr: 0x1000056F4, symSize: 0x3C }
  - { offset: 0x239CA, size: 0x8, addend: 0x0, symName: __ZNSt6vectorIS_IiSaIiEESaIS1_EE17_S_check_init_lenEmRKS2_, symObjAddr: 0x174C, symBinAddr: 0x100005680, symSize: 0x74 }
  - { offset: 0x23AB6, size: 0x8, addend: 0x0, symName: __ZNSt6vectorIS_IiSaIiEESaIS1_EEC1EmRKS2_, symObjAddr: 0x16E4, symBinAddr: 0x100005618, symSize: 0x68 }
  - { offset: 0x23B16, size: 0x8, addend: 0x0, symName: __ZNSt10__pair_getILm1EE10__move_getIiiEEOT0_OSt4pairIT_S2_E, symObjAddr: 0x16C4, symBinAddr: 0x1000055F8, symSize: 0x20 }
  - { offset: 0x23B52, size: 0x8, addend: 0x0, symName: __ZSt3getILm1EiiEONSt13tuple_elementIXT_ESt4pairIT0_T1_EE4typeEOS4_, symObjAddr: 0x16A4, symBinAddr: 0x1000055D8, symSize: 0x20 }
  - { offset: 0x23B9E, size: 0x8, addend: 0x0, symName: __ZSt7forwardIiEOT_RNSt16remove_referenceIS0_E4typeE, symObjAddr: 0x1690, symBinAddr: 0x1000055C4, symSize: 0x14 }
  - { offset: 0x23BD0, size: 0x8, addend: 0x0, symName: __ZNSt10__pair_getILm0EE10__move_getIiiEEOT_OSt4pairIS2_T0_E, symObjAddr: 0x1674, symBinAddr: 0x1000055A8, symSize: 0x1C }
  - { offset: 0x23C12, size: 0x8, addend: 0x0, symName: __ZSt4moveIRSt4pairIiiEEONSt16remove_referenceIT_E4typeEOS4_, symObjAddr: 0x1660, symBinAddr: 0x100005594, symSize: 0x14 }
  - { offset: 0x23C44, size: 0x8, addend: 0x0, symName: __ZSt3getILm0EiiEONSt13tuple_elementIXT_ESt4pairIT0_T1_EE4typeEOS4_, symObjAddr: 0x1640, symBinAddr: 0x100005574, symSize: 0x20 }
  - { offset: 0x23C8E, size: 0x8, addend: 0x0, symName: __ZNK9__gnu_cxx17__normal_iteratorIPSt4pairIiiESt6vectorIS2_SaIS2_EEEdeEv, symObjAddr: 0x1628, symBinAddr: 0x10000555C, symSize: 0x18 }
  - { offset: 0x23CB4, size: 0x8, addend: 0x0, symName: __ZN9__gnu_cxxeqIPSt4pairIiiESt6vectorIS2_SaIS2_EEEEbRKNS_17__normal_iteratorIT_T0_EESC_QrqXeqcldtfL0p_4baseEcldtfL0p0_4baseERSt14convertible_toIbEE, symObjAddr: 0x15E4, symBinAddr: 0x100005518, symSize: 0x44 }
  - { offset: 0x23D05, size: 0x8, addend: 0x0, symName: __ZNK9__gnu_cxx17__normal_iteratorIPSt4pairIiiESt6vectorIS2_SaIS2_EEE4baseEv, symObjAddr: 0x15D0, symBinAddr: 0x100005504, symSize: 0x14 }
  - { offset: 0x23D2F, size: 0x8, addend: 0x0, symName: __ZNKSt6vectorISt4pairIiiESaIS1_EE4sizeEv, symObjAddr: 0x15A8, symBinAddr: 0x1000054DC, symSize: 0x28 }
  - { offset: 0x23D80, size: 0x8, addend: 0x0, symName: __ZNSt12_Vector_baseISt4pairIiiESaIS1_EE12_Vector_implD1Ev, symObjAddr: 0x1588, symBinAddr: 0x1000054BC, symSize: 0x20 }
  - { offset: 0x23DC9, size: 0x8, addend: 0x0, symName: __ZNKSt6vectorIS_IiSaIiEESaIS1_EEixEm, symObjAddr: 0x1554, symBinAddr: 0x100005488, symSize: 0x34 }
  - { offset: 0x23E04, size: 0x8, addend: 0x0, symName: __ZNKSt6vectorIS_IiSaIiEESaIS1_EE4sizeEv, symObjAddr: 0x1520, symBinAddr: 0x100005454, symSize: 0x34 }
  - { offset: 0x23E31, size: 0x8, addend: 0x0, symName: __Z17kernelComputationiiRKSt6vectorIiSaIiEES3_S3_iRS_I8solutionSaIS4_EE, symObjAddr: 0xC80, symBinAddr: 0x100004BB4, symSize: 0x8A0 }
  - { offset: 0x241EB, size: 0x8, addend: 0x0, symName: __ZNSt6vectorIiSaIiEEC1Ev, symObjAddr: 0xC60, symBinAddr: 0x100004B94, symSize: 0x20 }
  - { offset: 0x2422B, size: 0x8, addend: 0x0, symName: __ZNSt12_Vector_baseIiSaIiEEC2Ev, symObjAddr: 0xC40, symBinAddr: 0x100004B74, symSize: 0x20 }
  - { offset: 0x24278, size: 0x8, addend: 0x0, symName: __ZNSt12_Vector_baseIiSaIiEE12_Vector_implD1Ev, symObjAddr: 0xC20, symBinAddr: 0x100004B54, symSize: 0x20 }
  - { offset: 0x242DB, size: 0x8, addend: 0x0, symName: __ZNSt12_Vector_baseIiSaIiEE17_Vector_impl_dataC2Ev, symObjAddr: 0xBF4, symBinAddr: 0x100004B28, symSize: 0x2C }
  - { offset: 0x24347, size: 0x8, addend: 0x0, symName: __ZNSt12_Vector_baseIiSaIiEE12_Vector_implC1EvQ26is_default_constructible_vIN9__gnu_cxx14__alloc_traitsIT0_NS5_10value_typeEE6rebindIT_E5otherEE, symObjAddr: 0xBBC, symBinAddr: 0x100004AF0, symSize: 0x38 }
  - { offset: 0x243B6, size: 0x8, addend: 0x0, symName: __Z11propagationRKSt6vectorIiSaIiEES3_iRS_I8solutionSaIS4_EERKS_IS1_SaIS1_EE, symObjAddr: 0x8F0, symBinAddr: 0x100004824, symSize: 0x2CC }
  - { offset: 0x244C3, size: 0x8, addend: 0x0, symName: __ZN8solutionaSERKS_, symObjAddr: 0x890, symBinAddr: 0x1000047C4, symSize: 0x60 }
  - { offset: 0x244F6, size: 0x8, addend: 0x0, symName: __ZNK9__gnu_cxx17__normal_iteratorIPKiSt6vectorIiSaIiEEEdeEv, symObjAddr: 0x878, symBinAddr: 0x1000047AC, symSize: 0x18 }
  - { offset: 0x24522, size: 0x8, addend: 0x0, symName: __ZN9__gnu_cxxeqIPKiSt6vectorIiSaIiEEEEbRKNS_17__normal_iteratorIT_T0_EESB_QrqXeqcldtfL0p_4baseEcldtfL0p0_4baseERSt14convertible_toIbEE, symObjAddr: 0x834, symBinAddr: 0x100004768, symSize: 0x44 }
  - { offset: 0x24573, size: 0x8, addend: 0x0, symName: __ZNK9__gnu_cxx17__normal_iteratorIPKiSt6vectorIiSaIiEEE4baseEv, symObjAddr: 0x820, symBinAddr: 0x100004754, symSize: 0x14 }
  - { offset: 0x2459D, size: 0x8, addend: 0x0, symName: __ZNKSt6vectorIiSaIiEE3endEv, symObjAddr: 0x7F8, symBinAddr: 0x10000472C, symSize: 0x28 }
  - { offset: 0x245EF, size: 0x8, addend: 0x0, symName: __ZN9__gnu_cxx17__normal_iteratorIPKiSt6vectorIiSaIiEEEC1ERKS2_, symObjAddr: 0x7D0, symBinAddr: 0x100004704, symSize: 0x28 }
  - { offset: 0x2461E, size: 0x8, addend: 0x0, symName: __ZNKSt6vectorIiSaIiEE5beginEv, symObjAddr: 0x7AC, symBinAddr: 0x1000046E0, symSize: 0x24 }
  - { offset: 0x2466F, size: 0x8, addend: 0x0, symName: __ZN8solutionD1Ev, symObjAddr: 0x788, symBinAddr: 0x1000046BC, symSize: 0x24 }
  - { offset: 0x246B7, size: 0x8, addend: 0x0, symName: __ZN8solutionC1ERKS_, symObjAddr: 0x720, symBinAddr: 0x100004654, symSize: 0x68 }
  - { offset: 0x246E6, size: 0x8, addend: 0x0, symName: __ZNKSt6vectorIiSaIiEE4sizeEv, symObjAddr: 0x6F8, symBinAddr: 0x10000462C, symSize: 0x28 }
  - { offset: 0x24738, size: 0x8, addend: 0x0, symName: __ZNSt6vectorIiSaIiEEC1ERKS1_, symObjAddr: 0x604, symBinAddr: 0x100004538, symSize: 0xF4 }
  - { offset: 0x24826, size: 0x8, addend: 0x0, symName: __ZSt3minImERKT_S2_S2_, symObjAddr: 0x5CC, symBinAddr: 0x100004500, symSize: 0x38 }
  - { offset: 0x2486C, size: 0x8, addend: 0x0, symName: __ZNSt8__detail20_Prime_rehash_policy8_M_resetEm, symObjAddr: 0x5A8, symBinAddr: 0x1000044DC, symSize: 0x24 }
  - { offset: 0x248A7, size: 0x8, addend: 0x0, symName: __ZNKSt8__detail20_Prime_rehash_policy8_M_stateEv, symObjAddr: 0x590, symBinAddr: 0x1000044C4, symSize: 0x18 }
  - { offset: 0x248F9, size: 0x8, addend: 0x0, symName: __ZNSt8__detail20_Prime_rehash_policyC1Ef, symObjAddr: 0x564, symBinAddr: 0x100004498, symSize: 0x2C }
  - { offset: 0x24928, size: 0x8, addend: 0x0, symName: __ZNKSt8__detail18_Mod_range_hashingclEmm, symObjAddr: 0x534, symBinAddr: 0x100004468, symSize: 0x30 }
  - { offset: 0x2498E, size: 0x8, addend: 0x0, symName: __ZNSt8__detail15_Hash_node_baseC1Ev, symObjAddr: 0x518, symBinAddr: 0x10000444C, symSize: 0x1C }
  - { offset: 0x249B8, size: 0x8, addend: 0x0, symName: __ZNSt8__detail15_Hash_node_baseC2Ev, symObjAddr: 0x4FC, symBinAddr: 0x100004430, symSize: 0x1C }
  - { offset: 0x24A05, size: 0x8, addend: 0x0, symName: __ZN8solutionC1Ei, symObjAddr: 0x480, symBinAddr: 0x1000043B4, symSize: 0x7C }
  - { offset: 0x24A93, size: 0x8, addend: 0x0, symName: __ZSt16__fill_bvector_nPmmb, symObjAddr: 0x3C4, symBinAddr: 0x1000042F8, symSize: 0xBC }
  - { offset: 0x24B09, size: 0x8, addend: 0x0, symName: __ZStplRKSt13_Bit_iteratorl, symObjAddr: 0x36C, symBinAddr: 0x1000042A0, symSize: 0x58 }
  - { offset: 0x24B59, size: 0x8, addend: 0x0, symName: __ZNKSt13_Bit_iteratorixEl, symObjAddr: 0x33C, symBinAddr: 0x100004270, symSize: 0x30 }
  - { offset: 0x24B94, size: 0x8, addend: 0x0, symName: __ZNSt13_Bit_iteratorpLEl, symObjAddr: 0x314, symBinAddr: 0x100004248, symSize: 0x28 }
  - { offset: 0x24BCF, size: 0x8, addend: 0x0, symName: __ZNKSt13_Bit_iteratordeEv, symObjAddr: 0x2AC, symBinAddr: 0x1000041E0, symSize: 0x68 }
  - { offset: 0x24C5C, size: 0x8, addend: 0x0, symName: __ZNSt13_Bit_iteratorC1EPmj, symObjAddr: 0x27C, symBinAddr: 0x1000041B0, symSize: 0x30 }
  - { offset: 0x24CAE, size: 0x8, addend: 0x0, symName: __ZNSt13_Bit_iteratorC1Ev, symObjAddr: 0x254, symBinAddr: 0x100004188, symSize: 0x28 }
  - { offset: 0x24CD4, size: 0x8, addend: 0x0, symName: __ZNSt18_Bit_iterator_base7_M_incrEl, symObjAddr: 0x17C, symBinAddr: 0x1000040B0, symSize: 0xD8 }
  - { offset: 0x24D7D, size: 0x8, addend: 0x0, symName: __ZNSt18_Bit_iterator_baseC2EPmj, symObjAddr: 0x148, symBinAddr: 0x10000407C, symSize: 0x34 }
  - { offset: 0x24DD8, size: 0x8, addend: 0x0, symName: __ZNSt14_Bit_referenceaSEb, symObjAddr: 0xCC, symBinAddr: 0x100004000, symSize: 0x7C }
  - { offset: 0x24E12, size: 0x8, addend: 0x0, symName: __ZNKSt14_Bit_referencecvbEv, symObjAddr: 0x98, symBinAddr: 0x100003FCC, symSize: 0x34 }
  - { offset: 0x24E70, size: 0x8, addend: 0x0, symName: __ZNSt14_Bit_referenceC1EPmm, symObjAddr: 0x64, symBinAddr: 0x100003F98, symSize: 0x34 }
  - { offset: 0x24EA8, size: 0x8, addend: 0x0, symName: __ZNKSt4hashIiEclEi, symObjAddr: 0x4C, symBinAddr: 0x100003F80, symSize: 0x18 }
  - { offset: 0x24EDE, size: 0x8, addend: 0x0, symName: __ZSt17__size_to_integerm, symObjAddr: 0x38, symBinAddr: 0x100003F6C, symSize: 0x14 }
  - { offset: 0x24F0F, size: 0x8, addend: 0x0, symName: __ZdlPvS_, symObjAddr: 0x20, symBinAddr: 0x100003F54, symSize: 0x18 }
  - { offset: 0x24F45, size: 0x8, addend: 0x0, symName: __ZnwmPv, symObjAddr: 0x8, symBinAddr: 0x100003F3C, symSize: 0x18 }
  - { offset: 0x24F77, size: 0x8, addend: 0x0, symName: __ZSt21is_constant_evaluatedv, symObjAddr: 0x0, symBinAddr: 0x100003F34, symSize: 0x8 }
  - { offset: 0x2822E, size: 0x8, addend: 0x0, symName: __ZL7NEG_INF, symObjAddr: 0x1800, symBinAddr: 0x100015714, symSize: 0x0 }
  - { offset: 0x2846D, size: 0x8, addend: 0x0, symName: __ZSt9__fill_a1IPxxEN9__gnu_cxx11__enable_ifIXsrSt11__is_scalarIT0_E7__valueEvE6__typeET_S8_RKS4_, symObjAddr: 0x17A8, symBinAddr: 0x10000FE7C, symSize: 0x58 }
  - { offset: 0x284DC, size: 0x8, addend: 0x0, symName: __ZSt8__fill_aIPxxEvT_S1_RKT0_, symObjAddr: 0x1720, symBinAddr: 0x10000FE4C, symSize: 0x30 }
  - { offset: 0x2853A, size: 0x8, addend: 0x0, symName: __ZSt10__fill_n_aIPxmxET_S1_T0_RKT1_St26random_access_iterator_tag, symObjAddr: 0x168C, symBinAddr: 0x10000FDE8, symSize: 0x64 }
  - { offset: 0x285CA, size: 0x8, addend: 0x0, symName: __ZNSt15__new_allocatorIxE8allocateEmPKv, symObjAddr: 0x1610, symBinAddr: 0x10000FD6C, symSize: 0x7C }
  - { offset: 0x28652, size: 0x8, addend: 0x0, symName: __ZSt6fill_nIPxmxET_S1_T0_RKT1_, symObjAddr: 0x14E8, symBinAddr: 0x10000FD24, symSize: 0x48 }
  - { offset: 0x286DA, size: 0x8, addend: 0x0, symName: __ZSt12construct_atIxJRKxEEDTgsnwcvPvLi0E_T_pispcl7declvalIT0_EEEEPS3_DpOS4_, symObjAddr: 0x14A0, symBinAddr: 0x10000FCDC, symSize: 0x48 }
  - { offset: 0x2872C, size: 0x8, addend: 0x0, symName: __ZSt7forwardIRKxEOT_RNSt16remove_referenceIS2_E4typeE, symObjAddr: 0x148C, symBinAddr: 0x10000FCC8, symSize: 0x14 }
  - { offset: 0x28785, size: 0x8, addend: 0x0, symName: __ZNSt15__new_allocatorIxE10deallocateEPxm, symObjAddr: 0x13B8, symBinAddr: 0x10000FC98, symSize: 0x30 }
  - { offset: 0x287CB, size: 0x8, addend: 0x0, symName: __ZNSt22__uninitialized_fill_nILb1EE15__uninit_fill_nIPxmxEET_S3_T0_RKT1_, symObjAddr: 0x138C, symBinAddr: 0x10000FC6C, symSize: 0x2C }
  - { offset: 0x28832, size: 0x8, addend: 0x0, symName: __ZSt10_ConstructIxJRKxEEvPT_DpOT0_, symObjAddr: 0x1320, symBinAddr: 0x10000FC00, symSize: 0x6C }
  - { offset: 0x28897, size: 0x8, addend: 0x0, symName: __ZSt11__addressofIxEPT_RS0_, symObjAddr: 0x130C, symBinAddr: 0x10000FBEC, symSize: 0x14 }
  - { offset: 0x2891D, size: 0x8, addend: 0x0, symName: __ZSt20uninitialized_fill_nIPxmxET_S1_T0_RKT1_, symObjAddr: 0x11FC, symBinAddr: 0x10000FBB8, symSize: 0x34 }
  - { offset: 0x28995, size: 0x8, addend: 0x0, symName: __ZSt18__do_uninit_fill_nIPxmxET_S1_T0_RKT1_, symObjAddr: 0x119C, symBinAddr: 0x10000FB58, symSize: 0x60 }
  - { offset: 0x28A11, size: 0x8, addend: 0x0, symName: __ZNSt12_Vector_baseIxSaIxEE11_M_allocateEm, symObjAddr: 0x10D8, symBinAddr: 0x10000FA94, symSize: 0xC4 }
  - { offset: 0x28AED, size: 0x8, addend: 0x0, symName: __ZSt24__uninitialized_fill_n_aIPxmxxET_S1_T0_RKT1_RSaIT2_E, symObjAddr: 0xEF0, symBinAddr: 0x10000FA3C, symSize: 0x58 }
  - { offset: 0x28B6A, size: 0x8, addend: 0x0, symName: __ZNSt12_Vector_baseIxSaIxEE17_M_create_storageEm, symObjAddr: 0xE90, symBinAddr: 0x10000F9DC, symSize: 0x60 }
  - { offset: 0x28BA1, size: 0x8, addend: 0x0, symName: __ZNSt6vectorIxSaIxEE11_S_max_sizeERKS0_, symObjAddr: 0xE5C, symBinAddr: 0x10000F9A8, symSize: 0x34 }
  - { offset: 0x28BF1, size: 0x8, addend: 0x0, symName: __ZNSt12_Vector_baseIxSaIxEE13_M_deallocateEPxm, symObjAddr: 0xCE4, symBinAddr: 0x10000F91C, symSize: 0x8C }
  - { offset: 0x28CC3, size: 0x8, addend: 0x0, symName: __ZNSt12_Vector_baseIxSaIxEE19_M_get_Tp_allocatorEv, symObjAddr: 0xCD0, symBinAddr: 0x10000F908, symSize: 0x14 }
  - { offset: 0x28CED, size: 0x8, addend: 0x0, symName: __ZNSt6vectorIxSaIxEE18_M_fill_initializeEmRKx, symObjAddr: 0xC78, symBinAddr: 0x10000F8B0, symSize: 0x58 }
  - { offset: 0x28D6F, size: 0x8, addend: 0x0, symName: __ZNSt12_Vector_baseIxSaIxEEC2EmRKS0_, symObjAddr: 0xC24, symBinAddr: 0x10000F85C, symSize: 0x54 }
  - { offset: 0x28DC1, size: 0x8, addend: 0x0, symName: __ZNSt12_Vector_baseIxSaIxEE17_Vector_impl_dataC2Ev, symObjAddr: 0xBF8, symBinAddr: 0x10000F830, symSize: 0x2C }
  - { offset: 0x28E0E, size: 0x8, addend: 0x0, symName: __ZNSt12_Vector_baseIxSaIxEE12_Vector_implC1ERKS0_, symObjAddr: 0xBAC, symBinAddr: 0x10000F7E4, symSize: 0x4C }
  - { offset: 0x28E91, size: 0x8, addend: 0x0, symName: __ZNSt6vectorIxSaIxEE17_S_check_init_lenEmRKS0_, symObjAddr: 0xB38, symBinAddr: 0x10000F770, symSize: 0x74 }
  - { offset: 0x28F97, size: 0x8, addend: 0x0, symName: __ZNSt12_Vector_baseIxSaIxEED2Ev, symObjAddr: 0x878, symBinAddr: 0x10000F720, symSize: 0x50 }
  - { offset: 0x28FBD, size: 0x8, addend: 0x0, symName: __ZNSt6vectorIxSaIxEEixEm, symObjAddr: 0x850, symBinAddr: 0x10000F6F8, symSize: 0x28 }
  - { offset: 0x28FF8, size: 0x8, addend: 0x0, symName: __ZNKSt6vectorIxSaIxEEixEm, symObjAddr: 0x828, symBinAddr: 0x10000F6D0, symSize: 0x28 }
  - { offset: 0x29077, size: 0x8, addend: 0x0, symName: __ZNSt6vectorIxSaIxEEC1EmRKxRKS0_, symObjAddr: 0x7B8, symBinAddr: 0x10000F660, symSize: 0x70 }
  - { offset: 0x2912B, size: 0x8, addend: 0x0, symName: __Z7boolCnvRKSt6vectorIiSaIiEES3_, symObjAddr: 0x550, symBinAddr: 0x10000F508, symSize: 0x158 }
  - { offset: 0x29252, size: 0x8, addend: 0x0, symName: __Z10maxPlusCnvRKSt6vectorIiSaIiEES3_, symObjAddr: 0x390, symBinAddr: 0x10000F348, symSize: 0x1C0 }
  - { offset: 0x29379, size: 0x8, addend: 0x0, symName: __Z10intSumConvRKSt6vectorIxSaIxEERKS_IiSaIiEE, symObjAddr: 0x220, symBinAddr: 0x10000F1D8, symSize: 0x170 }
  - { offset: 0x294C0, size: 0x8, addend: 0x0, symName: __ZNSt12_Vector_baseIxSaIxEE12_Vector_implD1Ev, symObjAddr: 0x200, symBinAddr: 0x10000F1B8, symSize: 0x20 }
  - { offset: 0x29547, size: 0x8, addend: 0x0, symName: __ZNKSt6vectorIxSaIxEE4sizeEv, symObjAddr: 0x1D8, symBinAddr: 0x10000F190, symSize: 0x28 }
  - { offset: 0x29578, size: 0x8, addend: 0x0, symName: __Z13boolCountConvRKSt6vectorIiSaIiEES3_, symObjAddr: 0x7C, symBinAddr: 0x10000F034, symSize: 0x15C }
  - { offset: 0x2B2CC, size: 0x8, addend: 0x0, symName: __ZL7NEG_INF, symObjAddr: 0x120, symBinAddr: 0x10001571C, symSize: 0x0 }
  - { offset: 0x2B443, size: 0x8, addend: 0x0, symName: __Z6lexCmpRK8solutionS1_, symObjAddr: 0x28, symBinAddr: 0x10000FED4, symSize: 0xD0 }
  - { offset: 0x2F852, size: 0x8, addend: 0x0, symName: __ZNK9__gnu_cxx5__ops15_Iter_less_iterclINS_17__normal_iteratorIPiSt6vectorIiSaIiEEEES8_EEbT_T0_, symObjAddr: 0x238C, symBinAddr: 0x1000104F8, symSize: 0x48 }
  - { offset: 0x2F8AA, size: 0x8, addend: 0x0, symName: __ZSt13__max_elementIN9__gnu_cxx17__normal_iteratorIPiSt6vectorIiSaIiEEEENS0_5__ops15_Iter_less_iterEET_S9_S9_T0_, symObjAddr: 0x1D10, symBinAddr: 0x100010458, symSize: 0xA0 }
  - { offset: 0x2F945, size: 0x8, addend: 0x0, symName: __ZSt11max_elementIN9__gnu_cxx17__normal_iteratorIPiSt6vectorIiSaIiEEEEET_S7_S7_, symObjAddr: 0x10C4, symBinAddr: 0x100010424, symSize: 0x34 }
  - { offset: 0x2F989, size: 0x8, addend: 0x0, symName: __ZSt3logIiEN9__gnu_cxx11__enable_ifIXsrSt12__is_integerIT_E7__valueEdE6__typeES3_, symObjAddr: 0xF34, symBinAddr: 0x1000103F8, symSize: 0x2C }
  - { offset: 0x2FA53, size: 0x8, addend: 0x0, symName: __Z17computeHittingSetRKSt6vectorIS_IiSaIiEESaIS1_EEii, symObjAddr: 0x718, symBinAddr: 0x10000FFAC, symSize: 0x44C }
  - { offset: 0x2FD91, size: 0x8, addend: 0x0, symName: __ZN9__gnu_cxx5__ops16__iter_less_iterEv, symObjAddr: 0x20, symBinAddr: 0x10000FFA4, symSize: 0x8 }
  - { offset: 0x36E12, size: 0x8, addend: 0x0, symName: __ZNSt11__copy_moveILb0ELb0ESt26random_access_iterator_tagE12__assign_oneIPiS3_EEvPT_PT0_, symObjAddr: 0x56D8, symBinAddr: 0x1000131C4, symSize: 0x28 }
  - { offset: 0x36E7D, size: 0x8, addend: 0x0, symName: __ZNSt15_Deque_iteratorIiRiPiEC1Ev, symObjAddr: 0x56A4, symBinAddr: 0x100013190, symSize: 0x34 }
  - { offset: 0x36E9F, size: 0x8, addend: 0x0, symName: __ZNSt20__copy_move_backwardILb0ELb1ESt26random_access_iterator_tagE13__copy_move_bIPiS3_EEPT0_PT_S7_S5_, symObjAddr: 0x55B0, symBinAddr: 0x1000130E4, symSize: 0xAC }
  - { offset: 0x36F0E, size: 0x8, addend: 0x0, symName: __ZNSt20__copy_move_backwardILb0ELb0ESt26random_access_iterator_tagE13__copy_move_bIPPiS4_EET0_T_S6_S5_, symObjAddr: 0x553C, symBinAddr: 0x100013070, symSize: 0x74 }
  - { offset: 0x36F7D, size: 0x8, addend: 0x0, symName: __ZNSt11__copy_moveILb0ELb1ESt26random_access_iterator_tagE8__copy_mIPiS3_EEPT0_PT_S7_S5_, symObjAddr: 0x54AC, symBinAddr: 0x100012FE0, symSize: 0x90 }
  - { offset: 0x36FEC, size: 0x8, addend: 0x0, symName: __ZNSt11__copy_moveILb0ELb0ESt26random_access_iterator_tagE8__copy_mIPPiS4_EET0_T_S6_S5_, symObjAddr: 0x5438, symBinAddr: 0x100012F6C, symSize: 0x74 }
  - { offset: 0x3707F, size: 0x8, addend: 0x0, symName: __ZNSt11_Deque_baseIiSaIiEE15_M_create_nodesEPPiS3_, symObjAddr: 0x53AC, symBinAddr: 0x100012EE0, symSize: 0x8C }
  - { offset: 0x370F6, size: 0x8, addend: 0x0, symName: __ZNSt11_Deque_baseIiSaIiEE16_Deque_impl_dataC2Ev, symObjAddr: 0x536C, symBinAddr: 0x100012EA0, symSize: 0x40 }
  - { offset: 0x3711C, size: 0x8, addend: 0x0, symName: __ZNSt15__new_allocatorIPiE10deallocateEPS0_m, symObjAddr: 0x5260, symBinAddr: 0x100012E70, symSize: 0x30 }
  - { offset: 0x37166, size: 0x8, addend: 0x0, symName: __ZNSt15__new_allocatorIPiE8allocateEmPKv, symObjAddr: 0x51E4, symBinAddr: 0x100012DF4, symSize: 0x7C }
  - { offset: 0x37204, size: 0x8, addend: 0x0, symName: __ZSt23__copy_move_backward_a2ILb0EPPiS1_ET1_T0_S3_S2_, symObjAddr: 0x5190, symBinAddr: 0x100012DA0, symSize: 0x54 }
  - { offset: 0x3726C, size: 0x8, addend: 0x0, symName: __ZSt14__copy_move_a2ILb0EPPiS1_ET1_T0_S3_S2_, symObjAddr: 0x513C, symBinAddr: 0x100012D4C, symSize: 0x54 }
  - { offset: 0x372D8, size: 0x8, addend: 0x0, symName: __ZNSt11_Deque_baseIiSaIiEE16_M_destroy_nodesEPPiS3_, symObjAddr: 0x50DC, symBinAddr: 0x100012CEC, symSize: 0x60 }
  - { offset: 0x37348, size: 0x8, addend: 0x0, symName: __ZNSt11_Deque_baseIiSaIiEE17_M_initialize_mapEm, symObjAddr: 0x4F50, symBinAddr: 0x100012B60, symSize: 0x18C }
  - { offset: 0x373D0, size: 0x8, addend: 0x0, symName: __ZNSt11_Deque_baseIiSaIiEE11_Deque_implC1Ev, symObjAddr: 0x4F18, symBinAddr: 0x100012B28, symSize: 0x38 }
  - { offset: 0x374B0, size: 0x8, addend: 0x0, symName: __ZSt23__copy_move_backward_a1ILb0EPPiS1_ET1_T0_S3_S2_, symObjAddr: 0x4D6C, symBinAddr: 0x100012AFC, symSize: 0x2C }
  - { offset: 0x37518, size: 0x8, addend: 0x0, symName: __ZSt12__niter_wrapIPPiET_RKS2_S2_, symObjAddr: 0x4D54, symBinAddr: 0x100012AE4, symSize: 0x18 }
  - { offset: 0x37554, size: 0x8, addend: 0x0, symName: __ZSt14__copy_move_a1ILb0EPPiS1_ET1_T0_S3_S2_, symObjAddr: 0x4D28, symBinAddr: 0x100012AB8, symSize: 0x2C }
  - { offset: 0x375BC, size: 0x8, addend: 0x0, symName: __ZSt12__niter_baseIPPiET_S2_, symObjAddr: 0x4D14, symBinAddr: 0x100012AA4, symSize: 0x14 }
  - { offset: 0x375F3, size: 0x8, addend: 0x0, symName: __ZNSt5dequeIiSaIiEE15_M_destroy_dataESt15_Deque_iteratorIiRiPiES5_RKS0_, symObjAddr: 0x4CF4, symBinAddr: 0x100012A84, symSize: 0x20 }
  - { offset: 0x3764E, size: 0x8, addend: 0x0, symName: __ZNSt5dequeIiSaIiEE3endEv, symObjAddr: 0x4CBC, symBinAddr: 0x100012A4C, symSize: 0x38 }
  - { offset: 0x3769C, size: 0x8, addend: 0x0, symName: __ZNSt11_Deque_baseIiSaIiEED2Ev, symObjAddr: 0x4C50, symBinAddr: 0x1000129E0, symSize: 0x6C }
  - { offset: 0x376DC, size: 0x8, addend: 0x0, symName: __ZNSt11_Deque_baseIiSaIiEEC2Ev, symObjAddr: 0x4C08, symBinAddr: 0x100012998, symSize: 0x48 }
  - { offset: 0x3772A, size: 0x8, addend: 0x0, symName: __ZNSt11_Deque_baseIiSaIiEE11_Deque_implD1Ev, symObjAddr: 0x4BE8, symBinAddr: 0x100012978, symSize: 0x20 }
  - { offset: 0x377EA, size: 0x8, addend: 0x0, symName: __ZNKSt11_Deque_baseIiSaIiEE20_M_get_map_allocatorEv, symObjAddr: 0x49F0, symBinAddr: 0x100012930, symSize: 0x48 }
  - { offset: 0x37860, size: 0x8, addend: 0x0, symName: __ZSt22__copy_move_backward_aILb0EPPiS1_ET1_T0_S3_S2_, symObjAddr: 0x4990, symBinAddr: 0x1000128D0, symSize: 0x60 }
  - { offset: 0x378C8, size: 0x8, addend: 0x0, symName: __ZSt13__copy_move_aILb0EPPiS1_ET1_T0_S3_S2_, symObjAddr: 0x4930, symBinAddr: 0x100012870, symSize: 0x60 }
  - { offset: 0x37930, size: 0x8, addend: 0x0, symName: __ZSt12__miter_baseIPPiET_S2_, symObjAddr: 0x491C, symBinAddr: 0x10001285C, symSize: 0x14 }
  - { offset: 0x3798B, size: 0x8, addend: 0x0, symName: __ZNSt5dequeIiSaIiEED1Ev, symObjAddr: 0x48B4, symBinAddr: 0x1000127F4, symSize: 0x68 }
  - { offset: 0x379DB, size: 0x8, addend: 0x0, symName: __ZNSt5queueIiSt5dequeIiSaIiEEEC1IS2_vEEv, symObjAddr: 0x4878, symBinAddr: 0x1000127B8, symSize: 0x3C }
  - { offset: 0x37A2A, size: 0x8, addend: 0x0, symName: __ZNSt5dequeIiSaIiEEC1Ev, symObjAddr: 0x4858, symBinAddr: 0x100012798, symSize: 0x20 }
  - { offset: 0x37A4C, size: 0x8, addend: 0x0, symName: __ZSt12construct_atISt5queueIiSt5dequeIiSaIiEEEJEEDTgsnwcvPvLi0E_T_pispcl7declvalIT0_EEEEPS6_DpOS7_, symObjAddr: 0x47E8, symBinAddr: 0x100012728, symSize: 0x70 }
  - { offset: 0x37A8C, size: 0x8, addend: 0x0, symName: __ZNSt15__new_allocatorISt5queueIiSt5dequeIiSaIiEEEE8allocateEmPKv, symObjAddr: 0x4758, symBinAddr: 0x100012698, symSize: 0x90 }
  - { offset: 0x37B14, size: 0x8, addend: 0x0, symName: __ZSt10destroy_atIxEvPT_, symObjAddr: 0x45B8, symBinAddr: 0x100012684, symSize: 0x14 }
  - { offset: 0x37B4A, size: 0x8, addend: 0x0, symName: __ZNSt11_Deque_baseIiSaIiEE17_M_deallocate_mapEPPim, symObjAddr: 0x4288, symBinAddr: 0x1000125F8, symSize: 0x8C }
  - { offset: 0x37C4B, size: 0x8, addend: 0x0, symName: __ZNSt11_Deque_baseIiSaIiEE15_M_allocate_mapEm, symObjAddr: 0x41BC, symBinAddr: 0x10001252C, symSize: 0xCC }
  - { offset: 0x37D45, size: 0x8, addend: 0x0, symName: __ZSt13copy_backwardIPPiS1_ET0_T_S3_S2_, symObjAddr: 0x4174, symBinAddr: 0x1000124E4, symSize: 0x48 }
  - { offset: 0x37DA3, size: 0x8, addend: 0x0, symName: __ZSt4copyIPPiS1_ET0_T_S3_S2_, symObjAddr: 0x412C, symBinAddr: 0x10001249C, symSize: 0x48 }
  - { offset: 0x37E01, size: 0x8, addend: 0x0, symName: __ZSt10destroy_atISt5queueIiSt5dequeIiSaIiEEEEvPT_, symObjAddr: 0x410C, symBinAddr: 0x10001247C, symSize: 0x20 }
  - { offset: 0x37E5E, size: 0x8, addend: 0x0, symName: __ZNSt5queueIiSt5dequeIiSaIiEEED1Ev, symObjAddr: 0x40EC, symBinAddr: 0x10001245C, symSize: 0x20 }
  - { offset: 0x37E80, size: 0x8, addend: 0x0, symName: __ZSt10_ConstructISt5queueIiSt5dequeIiSaIiEEEJEEvPT_DpOT0_, symObjAddr: 0x4064, symBinAddr: 0x1000123D4, symSize: 0x88 }
  - { offset: 0x37ED9, size: 0x8, addend: 0x0, symName: __ZNSt15__new_allocatorISt5queueIiSt5dequeIiSaIiEEEE10deallocateEPS4_m, symObjAddr: 0x4028, symBinAddr: 0x100012398, symSize: 0x3C }
  - { offset: 0x37F42, size: 0x8, addend: 0x0, symName: __ZSt8_DestroyIxEvPT_, symObjAddr: 0x3E10, symBinAddr: 0x100012378, symSize: 0x20 }
  - { offset: 0x37F74, size: 0x8, addend: 0x0, symName: __ZNSt22__uninitialized_fill_nILb0EE15__uninit_fill_nIPSt6vectorIiSaIiEEmS4_EET_S6_T0_RKT1_, symObjAddr: 0x3D38, symBinAddr: 0x10001234C, symSize: 0x2C }
  - { offset: 0x37FDB, size: 0x8, addend: 0x0, symName: __ZSt10_ConstructISt6vectorIiSaIiEEJRKS2_EEvPT_DpOT0_, symObjAddr: 0x3C94, symBinAddr: 0x1000122A8, symSize: 0xA4 }
  - { offset: 0x38040, size: 0x8, addend: 0x0, symName: __ZNSt15_Deque_iteratorIiRiPiE14_S_buffer_sizeEv, symObjAddr: 0x3B74, symBinAddr: 0x100012290, symSize: 0x18 }
  - { offset: 0x3805C, size: 0x8, addend: 0x0, symName: __ZNSt5dequeIiSaIiEE17_M_reallocate_mapEmb, symObjAddr: 0x3930, symBinAddr: 0x10001204C, symSize: 0x244 }
  - { offset: 0x38111, size: 0x8, addend: 0x0, symName: __ZNKSt11_Deque_baseIiSaIiEE19_M_get_Tp_allocatorEv, symObjAddr: 0x391C, symBinAddr: 0x100012038, symSize: 0x14 }
  - { offset: 0x38137, size: 0x8, addend: 0x0, symName: __ZNSt5dequeIiSaIiEE11_S_max_sizeERKS0_, symObjAddr: 0x38E8, symBinAddr: 0x100012004, symSize: 0x34 }
  - { offset: 0x38189, size: 0x8, addend: 0x0, symName: __ZStmiRKSt15_Deque_iteratorIiRiPiES4_, symObjAddr: 0x3854, symBinAddr: 0x100011F70, symSize: 0x94 }
  - { offset: 0x381C4, size: 0x8, addend: 0x0, symName: __ZSt8_DestroyISt5queueIiSt5dequeIiSaIiEEEEvPT_, symObjAddr: 0x3834, symBinAddr: 0x100011F50, symSize: 0x20 }
  - { offset: 0x381F6, size: 0x8, addend: 0x0, symName: __ZSt11__addressofISt5queueIiSt5dequeIiSaIiEEEEPT_RS5_, symObjAddr: 0x3820, symBinAddr: 0x100011F3C, symSize: 0x14 }
  - { offset: 0x38228, size: 0x8, addend: 0x0, symName: __ZNSt27__uninitialized_default_n_1ILb0EE18__uninit_default_nIPSt5queueIiSt5dequeIiSaIiEEEmEET_S8_T0_, symObjAddr: 0x3798, symBinAddr: 0x100011EB4, symSize: 0x88 }
  - { offset: 0x382FD, size: 0x8, addend: 0x0, symName: __ZNSt12_Destroy_auxILb1EE9__destroyIPxEEvT_S3_, symObjAddr: 0x35DC, symBinAddr: 0x100011E9C, symSize: 0x18 }
  - { offset: 0x38331, size: 0x8, addend: 0x0, symName: __ZNSt12_Destroy_auxILb0EE9__destroyIPxEEvT_S3_, symObjAddr: 0x3590, symBinAddr: 0x100011E50, symSize: 0x4C }
  - { offset: 0x38373, size: 0x8, addend: 0x0, symName: __ZSt20uninitialized_fill_nIPSt6vectorIiSaIiEEmS2_ET_S4_T0_RKT1_, symObjAddr: 0x33AC, symBinAddr: 0x100011E20, symSize: 0x30 }
  - { offset: 0x383EB, size: 0x8, addend: 0x0, symName: __ZSt18__do_uninit_fill_nIPSt6vectorIiSaIiEEmS2_ET_S4_T0_RKT1_, symObjAddr: 0x331C, symBinAddr: 0x100011D90, symSize: 0x90 }
  - { offset: 0x3848E, size: 0x8, addend: 0x0, symName: __ZNSt15_Deque_iteratorIiRiPiEC1ERKS2_, symObjAddr: 0x31B8, symBinAddr: 0x100011D38, symSize: 0x58 }
  - { offset: 0x384BD, size: 0x8, addend: 0x0, symName: __ZNSt11_Deque_baseIiSaIiEE18_M_deallocate_nodeEPi, symObjAddr: 0x312C, symBinAddr: 0x100011CAC, symSize: 0x8C }
  - { offset: 0x3857D, size: 0x8, addend: 0x0, symName: __ZNSt15_Deque_iteratorIiRiPiE11_M_set_nodeEPS1_, symObjAddr: 0x30D0, symBinAddr: 0x100011C50, symSize: 0x5C }
  - { offset: 0x385B8, size: 0x8, addend: 0x0, symName: __ZNSt11_Deque_baseIiSaIiEE16_M_allocate_nodeEv, symObjAddr: 0x3018, symBinAddr: 0x100011B98, symSize: 0xB8 }
  - { offset: 0x38655, size: 0x8, addend: 0x0, symName: __ZNSt5dequeIiSaIiEE22_M_reserve_map_at_backEm, symObjAddr: 0x2FB8, symBinAddr: 0x100011B38, symSize: 0x60 }
  - { offset: 0x38690, size: 0x8, addend: 0x0, symName: __ZNKSt5dequeIiSaIiEE8max_sizeEv, symObjAddr: 0x2F98, symBinAddr: 0x100011B18, symSize: 0x20 }
  - { offset: 0x386BA, size: 0x8, addend: 0x0, symName: __ZNKSt5dequeIiSaIiEE4sizeEv, symObjAddr: 0x2F68, symBinAddr: 0x100011AE8, symSize: 0x30 }
  - { offset: 0x386E0, size: 0x8, addend: 0x0, symName: __ZNSt12_Destroy_auxILb0EE9__destroyIPSt5queueIiSt5dequeIiSaIiEEEEEvT_S8_, symObjAddr: 0x2F1C, symBinAddr: 0x100011A9C, symSize: 0x4C }
  - { offset: 0x38722, size: 0x8, addend: 0x0, symName: __ZSt25__uninitialized_default_nIPSt5queueIiSt5dequeIiSaIiEEEmET_S6_T0_, symObjAddr: 0x2ECC, symBinAddr: 0x100011A4C, symSize: 0x50 }
  - { offset: 0x387B6, size: 0x8, addend: 0x0, symName: __ZNSt12_Vector_baseISt5queueIiSt5dequeIiSaIiEEESaIS4_EE11_M_allocateEm, symObjAddr: 0x2DF4, symBinAddr: 0x100011974, symSize: 0xD8 }
  - { offset: 0x388B4, size: 0x8, addend: 0x0, symName: __ZSt8_DestroyIPxEvT_S1_, symObjAddr: 0x2BE0, symBinAddr: 0x100011930, symSize: 0x44 }
  - { offset: 0x3890F, size: 0x8, addend: 0x0, symName: __ZSt24__uninitialized_fill_n_aIPSt6vectorIiSaIiEEmS2_S2_ET_S4_T0_RKT1_RSaIT2_E, symObjAddr: 0x29C0, symBinAddr: 0x1000118D8, symSize: 0x58 }
  - { offset: 0x3898C, size: 0x8, addend: 0x0, symName: __ZNSt5dequeIiSaIiEE16_M_pop_front_auxEv, symObjAddr: 0x27B0, symBinAddr: 0x100011850, symSize: 0x88 }
  - { offset: 0x38A10, size: 0x8, addend: 0x0, symName: __ZNSt11_Deque_baseIiSaIiEE19_M_get_Tp_allocatorEv, symObjAddr: 0x279C, symBinAddr: 0x10001183C, symSize: 0x14 }
  - { offset: 0x38A3A, size: 0x8, addend: 0x0, symName: __ZNKSt15_Deque_iteratorIiRiPiEdeEv, symObjAddr: 0x2784, symBinAddr: 0x100011824, symSize: 0x18 }
  - { offset: 0x38A64, size: 0x8, addend: 0x0, symName: __ZNSt5dequeIiSaIiEE5beginEv, symObjAddr: 0x274C, symBinAddr: 0x1000117EC, symSize: 0x38 }
  - { offset: 0x38A8A, size: 0x8, addend: 0x0, symName: __ZSteqRKSt15_Deque_iteratorIiRiPiES4_, symObjAddr: 0x271C, symBinAddr: 0x1000117BC, symSize: 0x30 }
  - { offset: 0x38AC9, size: 0x8, addend: 0x0, symName: __ZNSt5dequeIiSaIiEE16_M_push_back_auxIJRKiEEEvDpOT_, symObjAddr: 0x2630, symBinAddr: 0x1000116D0, symSize: 0xEC }
  - { offset: 0x38B40, size: 0x8, addend: 0x0, symName: __ZSt8_DestroyIPSt5queueIiSt5dequeIiSaIiEEEEvT_S6_, symObjAddr: 0x25EC, symBinAddr: 0x10001168C, symSize: 0x44 }
  - { offset: 0x38B9B, size: 0x8, addend: 0x0, symName: __ZSt27__uninitialized_default_n_aIPSt5queueIiSt5dequeIiSaIiEEEmS4_ET_S6_T0_RSaIT1_E, symObjAddr: 0x25C4, symBinAddr: 0x100011664, symSize: 0x28 }
  - { offset: 0x38BFE, size: 0x8, addend: 0x0, symName: __ZNSt12_Vector_baseISt5queueIiSt5dequeIiSaIiEEESaIS4_EE13_M_deallocateEPS4_m, symObjAddr: 0x2538, symBinAddr: 0x1000115D8, symSize: 0x8C }
  - { offset: 0x38CD0, size: 0x8, addend: 0x0, symName: __ZNSt12_Vector_baseISt5queueIiSt5dequeIiSaIiEEESaIS4_EE17_M_create_storageEm, symObjAddr: 0x24CC, symBinAddr: 0x10001156C, symSize: 0x6C }
  - { offset: 0x38D07, size: 0x8, addend: 0x0, symName: __ZNSt6vectorISt5queueIiSt5dequeIiSaIiEEESaIS4_EE11_S_max_sizeERKS5_, symObjAddr: 0x2490, symBinAddr: 0x100011530, symSize: 0x3C }
  - { offset: 0x38DDA, size: 0x8, addend: 0x0, symName: __ZNSt6vectorIS_IiSaIiEESaIS1_EE18_M_fill_initializeEmRKS1_, symObjAddr: 0x1F18, symBinAddr: 0x1000114D8, symSize: 0x58 }
  - { offset: 0x38E3C, size: 0x8, addend: 0x0, symName: __ZNSt5dequeIiSaIiEE9pop_frontEv, symObjAddr: 0x1BF4, symBinAddr: 0x10001145C, symSize: 0x7C }
  - { offset: 0x38E93, size: 0x8, addend: 0x0, symName: __ZNSt5dequeIiSaIiEE5frontEv, symObjAddr: 0x1BC8, symBinAddr: 0x100011430, symSize: 0x2C }
  - { offset: 0x38EBD, size: 0x8, addend: 0x0, symName: __ZNKSt5dequeIiSaIiEE5emptyEv, symObjAddr: 0x1B98, symBinAddr: 0x100011400, symSize: 0x30 }
  - { offset: 0x38EE7, size: 0x8, addend: 0x0, symName: __ZNSt5dequeIiSaIiEE9push_backERKi, symObjAddr: 0x1B08, symBinAddr: 0x100011370, symSize: 0x90 }
  - { offset: 0x38F93, size: 0x8, addend: 0x0, symName: __ZNSt12_Vector_baseISt5queueIiSt5dequeIiSaIiEEESaIS4_EE19_M_get_Tp_allocatorEv, symObjAddr: 0x1AF4, symBinAddr: 0x10001135C, symSize: 0x14 }
  - { offset: 0x38FBD, size: 0x8, addend: 0x0, symName: __ZNSt6vectorISt5queueIiSt5dequeIiSaIiEEESaIS4_EE21_M_default_initializeEm, symObjAddr: 0x1AA4, symBinAddr: 0x10001130C, symSize: 0x50 }
  - { offset: 0x3901C, size: 0x8, addend: 0x0, symName: __ZNSt12_Vector_baseISt5queueIiSt5dequeIiSaIiEEESaIS4_EED2Ev, symObjAddr: 0x1A48, symBinAddr: 0x1000112B0, symSize: 0x5C }
  - { offset: 0x39078, size: 0x8, addend: 0x0, symName: __ZNSt12_Vector_baseISt5queueIiSt5dequeIiSaIiEEESaIS4_EEC2EmRKS5_, symObjAddr: 0x19F4, symBinAddr: 0x10001125C, symSize: 0x54 }
  - { offset: 0x390D7, size: 0x8, addend: 0x0, symName: __ZNSt12_Vector_baseISt5queueIiSt5dequeIiSaIiEEESaIS4_EE12_Vector_implD1Ev, symObjAddr: 0x19D4, symBinAddr: 0x10001123C, symSize: 0x20 }
  - { offset: 0x3913A, size: 0x8, addend: 0x0, symName: __ZNSt12_Vector_baseISt5queueIiSt5dequeIiSaIiEEESaIS4_EE17_Vector_impl_dataC2Ev, symObjAddr: 0x19A8, symBinAddr: 0x100011210, symSize: 0x2C }
  - { offset: 0x391C5, size: 0x8, addend: 0x0, symName: __ZNSt12_Vector_baseISt5queueIiSt5dequeIiSaIiEEESaIS4_EE12_Vector_implC1ERKS5_, symObjAddr: 0x195C, symBinAddr: 0x1000111C4, symSize: 0x4C }
  - { offset: 0x39248, size: 0x8, addend: 0x0, symName: __ZNSt6vectorISt5queueIiSt5dequeIiSaIiEEESaIS4_EE17_S_check_init_lenEmRKS5_, symObjAddr: 0x18E8, symBinAddr: 0x100011150, symSize: 0x74 }
  - { offset: 0x39392, size: 0x8, addend: 0x0, symName: __ZNSt6vectorIxSaIxEED1Ev, symObjAddr: 0x1278, symBinAddr: 0x1000110F4, symSize: 0x5C }
  - { offset: 0x39468, size: 0x8, addend: 0x0, symName: __ZNSt6vectorIS_IiSaIiEESaIS1_EEC1EmRKS1_RKS2_, symObjAddr: 0x112C, symBinAddr: 0x100011084, symSize: 0x70 }
  - { offset: 0x394DF, size: 0x8, addend: 0x0, symName: __ZNSt5queueIiSt5dequeIiSaIiEEE3popEv, symObjAddr: 0xFBC, symBinAddr: 0x100011064, symSize: 0x20 }
  - { offset: 0x39509, size: 0x8, addend: 0x0, symName: __ZNSt5queueIiSt5dequeIiSaIiEEE5frontEv, symObjAddr: 0xFA0, symBinAddr: 0x100011048, symSize: 0x1C }
  - { offset: 0x39533, size: 0x8, addend: 0x0, symName: __ZNKSt5queueIiSt5dequeIiSaIiEEE5emptyEv, symObjAddr: 0xF84, symBinAddr: 0x10001102C, symSize: 0x1C }
  - { offset: 0x3955D, size: 0x8, addend: 0x0, symName: __ZNSt5queueIiSt5dequeIiSaIiEEE4pushERKi, symObjAddr: 0xF5C, symBinAddr: 0x100011004, symSize: 0x28 }
  - { offset: 0x39598, size: 0x8, addend: 0x0, symName: __ZNSt6vectorISt5queueIiSt5dequeIiSaIiEEESaIS4_EEixEm, symObjAddr: 0xF28, symBinAddr: 0x100010FD0, symSize: 0x34 }
  - { offset: 0x395F7, size: 0x8, addend: 0x0, symName: __ZNSt6vectorISt5queueIiSt5dequeIiSaIiEEESaIS4_EED1Ev, symObjAddr: 0xEA4, symBinAddr: 0x100010F74, symSize: 0x5C }
  - { offset: 0x39689, size: 0x8, addend: 0x0, symName: __ZNSt6vectorISt5queueIiSt5dequeIiSaIiEEESaIS4_EEC1EmRKS5_, symObjAddr: 0xE3C, symBinAddr: 0x100010F0C, symSize: 0x68 }
  - { offset: 0x39734, size: 0x8, addend: 0x0, symName: __Z16k_reconstructionRKSt6vectorIiSaIiEES3_RKS_IS1_SaIS1_EEi, symObjAddr: 0x830, symBinAddr: 0x100010AAC, symSize: 0x460 }
  - { offset: 0x39B93, size: 0x8, addend: 0x0, symName: __Z13peelWitnessesRKSt6vectorIS_IiSaIiEESaIS1_EERS3_S6_ii, symObjAddr: 0x2CC, symBinAddr: 0x100010570, symSize: 0x53C }
  - { offset: 0x39EDA, size: 0x8, addend: 0x0, symName: __ZSt16__deque_buf_sizem, symObjAddr: 0x4C, symBinAddr: 0x100010540, symSize: 0x30 }
  - { offset: 0x41748, size: 0x8, addend: 0x0, symName: __ZStL8__ioinit, symObjAddr: 0x53A50, symBinAddr: 0x100024001, symSize: 0x0 }
  - { offset: 0x41766, size: 0x8, addend: 0x0, symName: __ZL7NEG_INF, symObjAddr: 0x3318, symBinAddr: 0x10001572C, symSize: 0x0 }
  - { offset: 0x41C23, size: 0x8, addend: 0x0, symName: _main, symObjAddr: 0xEC, symBinAddr: 0x1000131EC, symSize: 0x504 }
...
